Certificate:
    Data:
        Version: 1 (0x0)
        Serial Number: 1 (0x1)
        Signature Algorithm: md5WithRSAEncryption
        Issuer: C=AU, ST=WesternAustralia, L=Perth, O=CITS3002, OU=Project, CN=localhost
        Validity
            Not Before: May 13 10:57:52 2014 GMT
            Not After : May 13 10:57:52 2015 GMT
        Subject: C=AU, ST=WesternAustralia, O=CITS3002, OU=Project, CN=localhost
        Subject Public Key Info:
            Public Key Algorithm: rsaEncryption
            RSA Public Key: (1024 bit)
                Modulus (1024 bit):
                    00:ed:a1:23:ad:0b:a9:b3:09:f9:35:42:52:c5:ae:
                    1d:f1:9e:54:c6:a5:b5:4a:4d:1b:24:7b:02:d7:e7:
                    73:0d:8c:d5:bf:75:5d:04:6f:49:69:20:bc:5b:bb:
                    54:49:4e:45:f6:f4:ab:ba:bd:4a:83:82:34:0c:48:
                    2a:2f:d9:02:a7:0f:b4:b9:0d:3d:8a:eb:75:b8:ac:
                    28:ef:ef:d5:27:bb:a0:4c:e2:bf:10:82:ac:5c:6a:
                    b6:d8:66:03:89:15:bb:ac:f8:72:83:11:19:b3:2a:
                    f8:9c:e6:95:67:4f:ec:f0:1c:19:12:26:4f:ed:ee:
                    c2:f6:98:6d:9e:13:f4:26:8f
                Exponent: 65537 (0x10001)
    Signature Algorithm: md5WithRSAEncryption
        a8:d9:0d:8d:a3:b4:3c:2d:70:3d:c6:24:8e:d0:d5:bd:cc:9d:
        de:8f:e1:1b:de:bf:97:e7:e4:4e:06:9d:aa:7f:cb:c0:a5:92:
        92:fc:aa:2b:06:9a:ee:2e:07:dd:ad:92:01:b7:a5:d3:9d:6a:
        53:47:68:40:ae:b1:f9:75:b7:23:35:87:29:6f:b5:bb:c9:af:
        98:2d:e7:b9:96:4e:ef:75:ca:9a:eb:b2:61:a7:d5:7f:ec:06:
        11:37:0e:27:bc:51:20:4e:83:49:e6:a0:67:72:18:e0:f1:ba:
        4f:91:f8:4d:2b:62:7a:ac:e2:d4:c9:d8:89:1b:c4:e2:34:42:
        0d:f9
-----BEGIN CERTIFICATE-----
MIICQTCCAaoCAQEwDQYJKoZIhvcNAQEEBQAwcTELMAkGA1UEBhMCQVUxGTAXBgNV
BAgTEFdlc3Rlcm5BdXN0cmFsaWExDjAMBgNVBAcTBVBlcnRoMREwDwYDVQQKEwhD
SVRTMzAwMjEQMA4GA1UECxMHUHJvamVjdDESMBAGA1UEAxMJbG9jYWxob3N0MB4X
DTE0MDUxMzEwNTc1MloXDTE1MDUxMzEwNTc1MlowYTELMAkGA1UEBhMCQVUxGTAX
BgNVBAgTEFdlc3Rlcm5BdXN0cmFsaWExETAPBgNVBAoTCENJVFMzMDAyMRAwDgYD
VQQLEwdQcm9qZWN0MRIwEAYDVQQDEwlsb2NhbGhvc3QwgZ8wDQYJKoZIhvcNAQEB
BQADgY0AMIGJAoGBAO2hI60LqbMJ+TVCUsWuHfGeVMaltUpNGyR7Atfncw2M1b91
XQRvSWkgvFu7VElORfb0q7q9SoOCNAxIKi/ZAqcPtLkNPYrrdbisKO/v1Se7oEzi
vxCCrFxqtthmA4kVu6z4coMRGbMq+JzmlWdP7PAcGRImT+3uwvaYbZ4T9CaPAgMB
AAEwDQYJKoZIhvcNAQEEBQADgYEAqNkNjaO0PC1wPcYkjtDVvcyd3o/hG96/l+fk
Tgadqn/LwKWSkvyqKwaa7i4H3a2SAbel051qU0doQK6x+XW3IzWHKW+1u8mvmC3n
uZZO73XKmuuyYafVf+wGETcOJ7xRIE6DSeagZ3IY4PG6T5H4TStieqzi1MnYiRvE
4jRCDfk=
-----END CERTIFICATE-----
