Certificate:
    Data:
        Version: 1 (0x0)
        Serial Number: 3 (0x3)
        Signature Algorithm: md5WithRSAEncryption
        Issuer: C=AU, ST=WesternAustralia, L=Perth, O=CITS3002, OU=Project, CN=localhost
        Validity
            Not Before: May 13 11:13:41 2014 GMT
            Not After : May 13 11:13:41 2015 GMT
        Subject: C=AU, ST=WesternAustralia, O=CITS3002, OU=Project, CN=localhost
        Subject Public Key Info:
            Public Key Algorithm: rsaEncryption
            RSA Public Key: (1024 bit)
                Modulus (1024 bit):
                    00:bb:32:ea:ee:0a:09:9d:94:a3:d7:02:6e:b2:b8:
                    28:1a:48:9e:b7:dc:6a:2b:8f:b5:ba:10:3d:53:87:
                    10:d9:4a:bf:0d:e2:27:cb:32:97:d8:1e:a9:75:b7:
                    10:c8:b3:e0:e2:0c:c0:fb:2e:42:96:10:79:7a:3b:
                    61:2c:3c:d8:7a:94:ef:a8:2b:aa:2e:27:6e:5f:df:
                    55:f6:1a:3e:47:f4:eb:0e:75:5f:cd:fa:8d:f2:6f:
                    ed:12:8a:3f:cd:80:47:b6:30:1c:c0:89:7c:2d:28:
                    8d:44:a0:be:f1:fa:8f:73:77:b1:f5:27:26:53:95:
                    eb:6c:57:2f:26:ae:37:4b:c9
                Exponent: 65537 (0x10001)
    Signature Algorithm: md5WithRSAEncryption
        a1:2a:66:87:05:3a:ff:46:59:e1:a1:43:8e:fe:db:f4:66:99:
        8d:fa:c6:92:a3:dd:f5:97:d4:0d:1a:c7:7f:b0:4e:c8:59:00:
        8e:7a:1f:22:4e:d0:b3:aa:de:7f:da:93:35:f6:c3:c0:c1:23:
        e5:92:bd:85:41:26:3c:02:cf:a5:6e:3c:c1:ef:4d:a1:59:c2:
        e9:72:93:21:56:b9:4e:ff:fb:a1:9d:6d:c6:54:73:10:e2:42:
        aa:49:7c:5b:4d:28:c7:45:f9:38:6d:99:21:e9:2b:53:33:12:
        63:a1:b4:3a:fd:2b:2a:91:36:de:cf:ee:f5:73:c8:bf:05:05:
        1d:0c
-----BEGIN CERTIFICATE-----
MIICQTCCAaoCAQMwDQYJKoZIhvcNAQEEBQAwcTELMAkGA1UEBhMCQVUxGTAXBgNV
BAgTEFdlc3Rlcm5BdXN0cmFsaWExDjAMBgNVBAcTBVBlcnRoMREwDwYDVQQKEwhD
SVRTMzAwMjEQMA4GA1UECxMHUHJvamVjdDESMBAGA1UEAxMJbG9jYWxob3N0MB4X
DTE0MDUxMzExMTM0MVoXDTE1MDUxMzExMTM0MVowYTELMAkGA1UEBhMCQVUxGTAX
BgNVBAgTEFdlc3Rlcm5BdXN0cmFsaWExETAPBgNVBAoTCENJVFMzMDAyMRAwDgYD
VQQLEwdQcm9qZWN0MRIwEAYDVQQDEwlsb2NhbGhvc3QwgZ8wDQYJKoZIhvcNAQEB
BQADgY0AMIGJAoGBALsy6u4KCZ2Uo9cCbrK4KBpInrfcaiuPtboQPVOHENlKvw3i
J8syl9geqXW3EMiz4OIMwPsuQpYQeXo7YSw82HqU76grqi4nbl/fVfYaPkf06w51
X836jfJv7RKKP82AR7YwHMCJfC0ojUSgvvH6j3N3sfUnJlOV62xXLyauN0vJAgMB
AAEwDQYJKoZIhvcNAQEEBQADgYEAoSpmhwU6/0ZZ4aFDjv7b9GaZjfrGkqPd9ZfU
DRrHf7BOyFkAjnofIk7Qs6ref9qTNfbDwMEj5ZK9hUEmPALPpW48we9NoVnC6XKT
IVa5Tv/7oZ1txlRzEOJCqkl8W00ox0X5OG2ZIekrUzMSY6G0Ov0rKpE23s/u9XPI
vwUFHQw=
-----END CERTIFICATE-----
