Certificate:
    Data:
        Version: 1 (0x0)
        Serial Number: 11 (0xb)
        Signature Algorithm: md5WithRSAEncryption
        Issuer: C=AU, ST=WesternAustralia, L=Perth, O=CITS3002, OU=Project, CN=localhost
        Validity
            Not Before: May 13 11:27:40 2014 GMT
            Not After : May 13 11:27:40 2015 GMT
        Subject: C=AU, ST=WesternAustralia, O=CITS3002, OU=Project, CN=localhost
        Subject Public Key Info:
            Public Key Algorithm: rsaEncryption
            RSA Public Key: (1024 bit)
                Modulus (1024 bit):
                    00:dd:de:bb:f6:75:e1:b2:b1:17:80:3a:3d:b8:de:
                    00:cb:80:14:45:1c:8e:c8:f9:f5:2c:40:d8:12:18:
                    36:50:a7:ba:ce:fe:9a:39:9e:68:a9:49:0e:34:34:
                    b2:3d:43:12:28:28:fe:5b:c1:d5:07:da:6b:ad:9d:
                    49:ef:a2:0d:4a:83:bb:e6:27:6a:14:80:54:37:da:
                    51:d4:53:6a:9a:c3:02:08:f9:99:6f:6a:57:9f:e2:
                    ce:55:d6:30:24:1b:6f:95:87:7a:b4:a3:38:3d:8f:
                    91:95:d3:70:58:5e:d0:0d:94:44:70:a1:a5:1e:af:
                    c4:fa:d4:3d:6a:cb:67:a2:a3
                Exponent: 65537 (0x10001)
    Signature Algorithm: md5WithRSAEncryption
        2a:9c:6d:d7:8a:61:a9:e9:b1:83:dd:f5:20:33:7b:2c:4b:3c:
        42:2a:ee:e0:c3:52:f5:10:8b:fe:69:46:1e:80:18:5c:0e:aa:
        4e:f7:82:ae:fa:ac:82:4a:cc:08:00:37:39:e5:9d:13:1a:dd:
        2a:08:1c:c9:bc:79:fd:7f:f4:22:4d:30:9e:71:37:1c:05:db:
        cf:51:2e:54:0c:71:df:e1:eb:43:d8:2a:4b:0e:68:95:30:b5:
        c8:17:07:7f:74:28:2f:5b:d7:b5:ff:20:dd:c4:98:36:3a:89:
        7b:cc:a6:42:74:b4:4f:ee:3e:d7:90:09:8d:f9:bc:92:7e:c2:
        3c:f4
-----BEGIN CERTIFICATE-----
MIICQTCCAaoCAQswDQYJKoZIhvcNAQEEBQAwcTELMAkGA1UEBhMCQVUxGTAXBgNV
BAgTEFdlc3Rlcm5BdXN0cmFsaWExDjAMBgNVBAcTBVBlcnRoMREwDwYDVQQKEwhD
SVRTMzAwMjEQMA4GA1UECxMHUHJvamVjdDESMBAGA1UEAxMJbG9jYWxob3N0MB4X
DTE0MDUxMzExMjc0MFoXDTE1MDUxMzExMjc0MFowYTELMAkGA1UEBhMCQVUxGTAX
BgNVBAgTEFdlc3Rlcm5BdXN0cmFsaWExETAPBgNVBAoTCENJVFMzMDAyMRAwDgYD
VQQLEwdQcm9qZWN0MRIwEAYDVQQDEwlsb2NhbGhvc3QwgZ8wDQYJKoZIhvcNAQEB
BQADgY0AMIGJAoGBAN3eu/Z14bKxF4A6PbjeAMuAFEUcjsj59SxA2BIYNlCnus7+
mjmeaKlJDjQ0sj1DEigo/lvB1Qfaa62dSe+iDUqDu+YnahSAVDfaUdRTaprDAgj5
mW9qV5/izlXWMCQbb5WHerSjOD2PkZXTcFhe0A2URHChpR6vxPrUPWrLZ6KjAgMB
AAEwDQYJKoZIhvcNAQEEBQADgYEAKpxt14phqemxg931IDN7LEs8Qiru4MNS9RCL
/mlGHoAYXA6qTveCrvqsgkrMCAA3OeWdExrdKggcybx5/X/0Ik0wnnE3HAXbz1Eu
VAxx3+HrQ9gqSw5olTC1yBcHf3QoL1vXtf8g3cSYNjqJe8ymQnS0T+4+15AJjfm8
kn7CPPQ=
-----END CERTIFICATE-----
