Certificate:
    Data:
        Version: 1 (0x0)
        Serial Number: 25 (0x19)
        Signature Algorithm: md5WithRSAEncryption
        Issuer: C=AU, ST=WesternAustralia, O=CITS3002, OU=Project, CN=localhost
        Validity
            Not Before: May 13 12:41:52 2014 GMT
            Not After : May 13 12:41:52 2015 GMT
        Subject: C=AU, ST=WesternAustralia, O=CITS3002, OU=Project, CN=localhost
        Subject Public Key Info:
            Public Key Algorithm: rsaEncryption
            RSA Public Key: (1024 bit)
                Modulus (1024 bit):
                    00:e2:42:bd:e4:d1:59:54:b2:dc:2b:2c:ba:20:05:
                    9a:3d:8c:e2:5a:c5:3f:68:e6:d2:77:4d:0b:85:d4:
                    78:5c:ee:7c:e9:b1:94:40:54:94:7f:90:1a:33:35:
                    38:06:e5:86:dc:57:b3:31:6d:7c:65:b5:c1:5d:e7:
                    65:97:fa:de:81:c1:b3:50:fb:9b:fa:c8:1f:af:36:
                    2c:17:6e:40:78:38:03:c9:67:6e:46:5e:18:38:b6:
                    c5:5e:43:20:5e:7b:f8:04:33:07:f4:98:e8:1b:ab:
                    bf:ff:b1:8c:19:5a:68:e8:80:dd:97:36:a0:ca:84:
                    34:39:34:6f:37:1b:79:29:91
                Exponent: 65537 (0x10001)
    Signature Algorithm: md5WithRSAEncryption
        28:2f:f2:1d:7c:f9:c0:bd:88:85:b0:71:5a:94:85:d7:f3:1c:
        d6:35:42:79:d0:94:14:b9:61:13:f9:f6:37:2b:76:ee:41:62:
        da:bf:36:6e:79:a3:b3:44:15:df:26:a7:cd:f5:9c:26:e1:7b:
        3b:b6:85:49:51:8c:01:1c:9b:e6:6c:eb:e0:6a:60:89:7a:6d:
        9c:f6:45:57:bd:ae:51:3e:67:c2:54:51:cc:5b:ae:91:68:31:
        ed:39:85:7d:88:2f:f9:23:20:cc:3c:bd:df:d4:3f:09:8c:e3:
        8e:a6:04:dd:64:f0:8c:44:0e:f6:e3:ad:d8:13:48:a1:bc:e7:
        5f:6b
-----BEGIN CERTIFICATE-----
MIICMTCCAZoCARkwDQYJKoZIhvcNAQEEBQAwYTELMAkGA1UEBhMCQVUxGTAXBgNV
BAgTEFdlc3Rlcm5BdXN0cmFsaWExETAPBgNVBAoTCENJVFMzMDAyMRAwDgYDVQQL
EwdQcm9qZWN0MRIwEAYDVQQDEwlsb2NhbGhvc3QwHhcNMTQwNTEzMTI0MTUyWhcN
MTUwNTEzMTI0MTUyWjBhMQswCQYDVQQGEwJBVTEZMBcGA1UECBMQV2VzdGVybkF1
c3RyYWxpYTERMA8GA1UEChMIQ0lUUzMwMDIxEDAOBgNVBAsTB1Byb2plY3QxEjAQ
BgNVBAMTCWxvY2FsaG9zdDCBnzANBgkqhkiG9w0BAQEFAAOBjQAwgYkCgYEA4kK9
5NFZVLLcKyy6IAWaPYziWsU/aObSd00LhdR4XO586bGUQFSUf5AaMzU4BuWG3Fez
MW18ZbXBXedll/regcGzUPub+sgfrzYsF25AeDgDyWduRl4YOLbFXkMgXnv4BDMH
9JjoG6u//7GMGVpo6IDdlzagyoQ0OTRvNxt5KZECAwEAATANBgkqhkiG9w0BAQQF
AAOBgQAoL/IdfPnAvYiFsHFalIXX8xzWNUJ50JQUuWET+fY3K3buQWLavzZueaOz
RBXfJqfN9Zwm4Xs7toVJUYwBHJvmbOvgamCJem2c9kVXva5RPmfCVFHMW66RaDHt
OYV9iC/5IyDMPL3f1D8JjOOOpgTdZPCMRA72463YE0ihvOdfaw==
-----END CERTIFICATE-----
