Certificate:
    Data:
        Version: 1 (0x0)
        Serial Number: 13 (0xd)
        Signature Algorithm: md5WithRSAEncryption
        Issuer: C=AU, ST=WesternAustralia, L=Perth, O=CITS3002, OU=Project, CN=localhost
        Validity
            Not Before: May 13 11:27:40 2014 GMT
            Not After : May 13 11:27:40 2015 GMT
        Subject: C=AU, ST=WesternAustralia, O=CITS3002, OU=Project, CN=localhost
        Subject Public Key Info:
            Public Key Algorithm: rsaEncryption
            RSA Public Key: (1024 bit)
                Modulus (1024 bit):
                    00:e2:42:bd:e4:d1:59:54:b2:dc:2b:2c:ba:20:05:
                    9a:3d:8c:e2:5a:c5:3f:68:e6:d2:77:4d:0b:85:d4:
                    78:5c:ee:7c:e9:b1:94:40:54:94:7f:90:1a:33:35:
                    38:06:e5:86:dc:57:b3:31:6d:7c:65:b5:c1:5d:e7:
                    65:97:fa:de:81:c1:b3:50:fb:9b:fa:c8:1f:af:36:
                    2c:17:6e:40:78:38:03:c9:67:6e:46:5e:18:38:b6:
                    c5:5e:43:20:5e:7b:f8:04:33:07:f4:98:e8:1b:ab:
                    bf:ff:b1:8c:19:5a:68:e8:80:dd:97:36:a0:ca:84:
                    34:39:34:6f:37:1b:79:29:91
                Exponent: 65537 (0x10001)
    Signature Algorithm: md5WithRSAEncryption
        d0:9f:ea:67:71:82:36:36:c5:eb:15:0c:26:54:66:a6:91:71:
        d9:96:ce:3f:71:a9:76:f1:66:a5:77:e5:36:e9:98:d7:27:de:
        94:45:f4:62:14:64:c3:08:c6:c9:ae:fa:65:99:12:9b:9f:5c:
        9e:0c:ab:21:36:84:32:cf:4b:30:4b:c9:bd:f5:e0:94:5a:5a:
        62:d7:1e:58:ea:cf:56:06:cc:b8:07:ef:2d:00:c6:d6:43:af:
        e5:d3:de:1e:2b:d3:69:21:59:af:17:56:7f:10:57:4b:5c:26:
        ca:b5:9d:d2:bb:f1:89:b1:85:71:43:38:c1:bf:8d:a8:3f:75:
        8b:70
-----BEGIN CERTIFICATE-----
MIICQTCCAaoCAQ0wDQYJKoZIhvcNAQEEBQAwcTELMAkGA1UEBhMCQVUxGTAXBgNV
BAgTEFdlc3Rlcm5BdXN0cmFsaWExDjAMBgNVBAcTBVBlcnRoMREwDwYDVQQKEwhD
SVRTMzAwMjEQMA4GA1UECxMHUHJvamVjdDESMBAGA1UEAxMJbG9jYWxob3N0MB4X
DTE0MDUxMzExMjc0MFoXDTE1MDUxMzExMjc0MFowYTELMAkGA1UEBhMCQVUxGTAX
BgNVBAgTEFdlc3Rlcm5BdXN0cmFsaWExETAPBgNVBAoTCENJVFMzMDAyMRAwDgYD
VQQLEwdQcm9qZWN0MRIwEAYDVQQDEwlsb2NhbGhvc3QwgZ8wDQYJKoZIhvcNAQEB
BQADgY0AMIGJAoGBAOJCveTRWVSy3CssuiAFmj2M4lrFP2jm0ndNC4XUeFzufOmx
lEBUlH+QGjM1OAblhtxXszFtfGW1wV3nZZf63oHBs1D7m/rIH682LBduQHg4A8ln
bkZeGDi2xV5DIF57+AQzB/SY6Burv/+xjBlaaOiA3Zc2oMqENDk0bzcbeSmRAgMB
AAEwDQYJKoZIhvcNAQEEBQADgYEA0J/qZ3GCNjbF6xUMJlRmppFx2ZbOP3GpdvFm
pXflNumY1yfelEX0YhRkwwjGya76ZZkSm59cngyrITaEMs9LMEvJvfXglFpaYtce
WOrPVgbMuAfvLQDG1kOv5dPeHivTaSFZrxdWfxBXS1wmyrWd0rvxibGFcUM4wb+N
qD91i3A=
-----END CERTIFICATE-----
