Certificate:
    Data:
        Version: 1 (0x0)
        Serial Number: 21 (0x15)
        Signature Algorithm: md5WithRSAEncryption
        Issuer: C=AU, ST=WesternAustralia, O=CITS3002, OU=Project, CN=localhost
        Validity
            Not Before: May 13 12:41:52 2014 GMT
            Not After : May 13 12:41:52 2015 GMT
        Subject: C=AU, ST=WesternAustralia, O=CITS3002, OU=Project, CN=localhost
        Subject Public Key Info:
            Public Key Algorithm: rsaEncryption
            RSA Public Key: (1024 bit)
                Modulus (1024 bit):
                    00:ed:a1:23:ad:0b:a9:b3:09:f9:35:42:52:c5:ae:
                    1d:f1:9e:54:c6:a5:b5:4a:4d:1b:24:7b:02:d7:e7:
                    73:0d:8c:d5:bf:75:5d:04:6f:49:69:20:bc:5b:bb:
                    54:49:4e:45:f6:f4:ab:ba:bd:4a:83:82:34:0c:48:
                    2a:2f:d9:02:a7:0f:b4:b9:0d:3d:8a:eb:75:b8:ac:
                    28:ef:ef:d5:27:bb:a0:4c:e2:bf:10:82:ac:5c:6a:
                    b6:d8:66:03:89:15:bb:ac:f8:72:83:11:19:b3:2a:
                    f8:9c:e6:95:67:4f:ec:f0:1c:19:12:26:4f:ed:ee:
                    c2:f6:98:6d:9e:13:f4:26:8f
                Exponent: 65537 (0x10001)
    Signature Algorithm: md5WithRSAEncryption
        39:75:8e:e4:a8:5f:6a:40:96:a7:b3:42:58:5c:49:d4:93:c9:
        c4:f1:10:19:bc:90:4e:72:8f:1b:04:87:30:6b:b1:4d:a2:77:
        2c:f6:91:80:1f:cd:33:cc:91:48:53:d5:2f:28:bf:28:96:a5:
        2d:5f:2d:08:f2:43:01:f0:80:0b:d8:89:bf:ca:88:08:fb:83:
        a3:6c:8b:c9:60:b5:0e:8f:63:28:93:aa:ee:c8:a5:36:5a:27:
        48:ec:e2:b5:de:58:e3:48:98:69:3d:e9:36:68:37:18:e4:a5:
        97:1a:13:cb:fb:bd:f6:4c:e5:13:91:f9:50:94:86:b7:57:b9:
        27:3a
-----BEGIN CERTIFICATE-----
MIICMTCCAZoCARUwDQYJKoZIhvcNAQEEBQAwYTELMAkGA1UEBhMCQVUxGTAXBgNV
BAgTEFdlc3Rlcm5BdXN0cmFsaWExETAPBgNVBAoTCENJVFMzMDAyMRAwDgYDVQQL
EwdQcm9qZWN0MRIwEAYDVQQDEwlsb2NhbGhvc3QwHhcNMTQwNTEzMTI0MTUyWhcN
MTUwNTEzMTI0MTUyWjBhMQswCQYDVQQGEwJBVTEZMBcGA1UECBMQV2VzdGVybkF1
c3RyYWxpYTERMA8GA1UEChMIQ0lUUzMwMDIxEDAOBgNVBAsTB1Byb2plY3QxEjAQ
BgNVBAMTCWxvY2FsaG9zdDCBnzANBgkqhkiG9w0BAQEFAAOBjQAwgYkCgYEA7aEj
rQupswn5NUJSxa4d8Z5UxqW1Sk0bJHsC1+dzDYzVv3VdBG9JaSC8W7tUSU5F9vSr
ur1Kg4I0DEgqL9kCpw+0uQ09iut1uKwo7+/VJ7ugTOK/EIKsXGq22GYDiRW7rPhy
gxEZsyr4nOaVZ0/s8BwZEiZP7e7C9phtnhP0Jo8CAwEAATANBgkqhkiG9w0BAQQF
AAOBgQA5dY7kqF9qQJans0JYXEnUk8nE8RAZvJBOco8bBIcwa7FNoncs9pGAH80z
zJFIU9UvKL8olqUtXy0I8kMB8IAL2Im/yogI+4OjbIvJYLUOj2Mok6ruyKU2WidI
7OK13ljjSJhpPek2aDcY5KWXGhPL+732TOUTkflQlIa3V7knOg==
-----END CERTIFICATE-----
