Certificate:
    Data:
        Version: 1 (0x0)
        Serial Number: 20 (0x14)
        Signature Algorithm: md5WithRSAEncryption
        Issuer: C=AU, ST=WesternAustralia, O=CITS3002, OU=Project, CN=localhost
        Validity
            Not Before: May 13 12:41:52 2014 GMT
            Not After : May 13 12:41:52 2015 GMT
        Subject: C=AU, ST=WesternAustralia, O=CITS3002, OU=Project, CN=localhost
        Subject Public Key Info:
            Public Key Algorithm: rsaEncryption
            RSA Public Key: (1024 bit)
                Modulus (1024 bit):
                    00:bb:32:ea:ee:0a:09:9d:94:a3:d7:02:6e:b2:b8:
                    28:1a:48:9e:b7:dc:6a:2b:8f:b5:ba:10:3d:53:87:
                    10:d9:4a:bf:0d:e2:27:cb:32:97:d8:1e:a9:75:b7:
                    10:c8:b3:e0:e2:0c:c0:fb:2e:42:96:10:79:7a:3b:
                    61:2c:3c:d8:7a:94:ef:a8:2b:aa:2e:27:6e:5f:df:
                    55:f6:1a:3e:47:f4:eb:0e:75:5f:cd:fa:8d:f2:6f:
                    ed:12:8a:3f:cd:80:47:b6:30:1c:c0:89:7c:2d:28:
                    8d:44:a0:be:f1:fa:8f:73:77:b1:f5:27:26:53:95:
                    eb:6c:57:2f:26:ae:37:4b:c9
                Exponent: 65537 (0x10001)
    Signature Algorithm: md5WithRSAEncryption
        16:87:f1:c2:ac:50:de:da:d8:e2:7a:52:f0:65:0c:54:68:26:
        6d:cd:f3:92:ca:91:75:76:25:4f:89:5a:08:ac:0d:bd:1d:36:
        2a:8a:2b:a2:fc:91:d9:81:32:bd:12:73:33:07:95:73:2c:22:
        2a:52:f8:df:fe:91:29:3b:a8:33:96:67:25:19:bb:67:8c:fd:
        63:18:10:aa:f5:c3:c6:ee:71:9c:82:c0:d2:89:6e:be:72:18:
        b1:b6:4c:b9:db:75:da:c4:c8:c8:9c:eb:3a:d0:ad:ee:21:93:
        3c:df:d1:33:6b:3a:bd:1e:c9:4e:0d:7e:72:cc:3e:c1:9a:40:
        7a:23
-----BEGIN CERTIFICATE-----
MIICMTCCAZoCARQwDQYJKoZIhvcNAQEEBQAwYTELMAkGA1UEBhMCQVUxGTAXBgNV
BAgTEFdlc3Rlcm5BdXN0cmFsaWExETAPBgNVBAoTCENJVFMzMDAyMRAwDgYDVQQL
EwdQcm9qZWN0MRIwEAYDVQQDEwlsb2NhbGhvc3QwHhcNMTQwNTEzMTI0MTUyWhcN
MTUwNTEzMTI0MTUyWjBhMQswCQYDVQQGEwJBVTEZMBcGA1UECBMQV2VzdGVybkF1
c3RyYWxpYTERMA8GA1UEChMIQ0lUUzMwMDIxEDAOBgNVBAsTB1Byb2plY3QxEjAQ
BgNVBAMTCWxvY2FsaG9zdDCBnzANBgkqhkiG9w0BAQEFAAOBjQAwgYkCgYEAuzLq
7goJnZSj1wJusrgoGkiet9xqK4+1uhA9U4cQ2Uq/DeInyzKX2B6pdbcQyLPg4gzA
+y5ClhB5ejthLDzYepTvqCuqLiduX99V9ho+R/TrDnVfzfqN8m/tEoo/zYBHtjAc
wIl8LSiNRKC+8fqPc3ex9ScmU5XrbFcvJq43S8kCAwEAATANBgkqhkiG9w0BAQQF
AAOBgQAWh/HCrFDe2tjielLwZQxUaCZtzfOSypF1diVPiVoIrA29HTYqiiui/JHZ
gTK9EnMzB5VzLCIqUvjf/pEpO6gzlmclGbtnjP1jGBCq9cPG7nGcgsDSiW6+chix
tky523XaxMjInOs60K3uIZM839Ezazq9HslODX5yzD7BmkB6Iw==
-----END CERTIFICATE-----
