Certificate:
    Data:
        Version: 1 (0x0)
        Serial Number: 18 (0x12)
        Signature Algorithm: md5WithRSAEncryption
        Issuer: C=AU, ST=WesternAustralia, O=CITS3002, OU=Project, CN=localhost
        Validity
            Not Before: May 13 12:41:52 2014 GMT
            Not After : May 13 12:41:52 2015 GMT
        Subject: C=AU, ST=WesternAustralia, O=CITS3002, OU=Project, CN=localhost
        Subject Public Key Info:
            Public Key Algorithm: rsaEncryption
            RSA Public Key: (1024 bit)
                Modulus (1024 bit):
                    00:ac:e2:20:eb:1e:3b:3f:7b:7d:81:e5:d0:93:47:
                    7c:41:28:92:55:79:11:68:be:66:e6:a3:f4:3e:88:
                    41:25:93:69:65:d4:6a:5f:93:c1:49:10:b0:88:42:
                    5a:43:b8:f2:f5:ee:4d:a9:ec:ba:02:71:96:0a:0a:
                    5c:52:b5:f5:2d:e7:ee:dc:74:ca:2a:39:e4:f3:8c:
                    50:f0:b2:58:da:81:ae:36:24:25:50:fb:aa:ef:15:
                    ad:ca:e7:4b:17:82:6c:15:5a:a8:7a:06:1e:dc:8a:
                    a6:cd:59:5f:4d:e1:e9:7a:4e:10:a2:89:0d:1e:1b:
                    6d:c7:7c:c1:32:5d:6d:79:e9
                Exponent: 65537 (0x10001)
    Signature Algorithm: md5WithRSAEncryption
        c9:65:a2:ec:09:7e:4c:53:3d:a8:8c:98:3b:70:ee:1b:e6:fd:
        7d:57:cf:b1:dd:95:c5:14:eb:24:9c:49:a7:9a:de:b7:22:cd:
        19:95:52:89:60:d5:dc:4d:6a:38:f7:16:05:a6:b5:21:d1:f1:
        ae:3c:bc:d1:ac:33:36:60:ae:88:59:0b:ae:a6:5a:c3:79:0f:
        ee:88:b2:df:cd:d9:60:dd:1e:d1:53:56:1c:fd:94:9a:93:8c:
        76:9f:c7:08:00:f6:a6:89:00:d1:32:00:87:77:43:f5:a3:87:
        b1:d0:40:2c:a4:53:6a:50:75:73:b6:96:3b:ad:01:53:05:e1:
        c1:90
-----BEGIN CERTIFICATE-----
MIICMTCCAZoCARIwDQYJKoZIhvcNAQEEBQAwYTELMAkGA1UEBhMCQVUxGTAXBgNV
BAgTEFdlc3Rlcm5BdXN0cmFsaWExETAPBgNVBAoTCENJVFMzMDAyMRAwDgYDVQQL
EwdQcm9qZWN0MRIwEAYDVQQDEwlsb2NhbGhvc3QwHhcNMTQwNTEzMTI0MTUyWhcN
MTUwNTEzMTI0MTUyWjBhMQswCQYDVQQGEwJBVTEZMBcGA1UECBMQV2VzdGVybkF1
c3RyYWxpYTERMA8GA1UEChMIQ0lUUzMwMDIxEDAOBgNVBAsTB1Byb2plY3QxEjAQ
BgNVBAMTCWxvY2FsaG9zdDCBnzANBgkqhkiG9w0BAQEFAAOBjQAwgYkCgYEArOIg
6x47P3t9geXQk0d8QSiSVXkRaL5m5qP0PohBJZNpZdRqX5PBSRCwiEJaQ7jy9e5N
qey6AnGWCgpcUrX1Lefu3HTKKjnk84xQ8LJY2oGuNiQlUPuq7xWtyudLF4JsFVqo
egYe3IqmzVlfTeHpek4QookNHhttx3zBMl1teekCAwEAATANBgkqhkiG9w0BAQQF
AAOBgQDJZaLsCX5MUz2ojJg7cO4b5v19V8+x3ZXFFOsknEmnmt63Is0ZlVKJYNXc
TWo49xYFprUh0fGuPLzRrDM2YK6IWQuuplrDeQ/uiLLfzdlg3R7RU1Yc/ZSak4x2
n8cIAPamiQDRMgCHd0P1o4ex0EAspFNqUHVztpY7rQFTBeHBkA==
-----END CERTIFICATE-----
