Certificate:
    Data:
        Version: 1 (0x0)
        Serial Number: 17 (0x11)
        Signature Algorithm: md5WithRSAEncryption
        Issuer: C=AU, ST=WesternAustralia, L=Perth, O=CITS3002, OU=Project, CN=localhost
        Validity
            Not Before: May 13 12:41:52 2014 GMT
            Not After : May 13 12:41:52 2015 GMT
        Subject: C=AU, ST=WesternAustralia, O=CITS3002, OU=Project, CN=localhost
        Subject Public Key Info:
            Public Key Algorithm: rsaEncryption
            RSA Public Key: (1024 bit)
                Modulus (1024 bit):
                    00:db:23:78:51:0c:42:f4:34:04:f5:3d:87:50:3a:
                    2c:6f:10:6b:67:a5:26:7b:7a:6e:80:cc:07:4e:bd:
                    6e:ca:47:0a:de:22:fa:78:d9:35:f9:dc:ac:f1:b9:
                    57:e2:06:21:0b:9a:ef:ae:98:63:15:a4:af:e0:e8:
                    ae:e8:26:47:e5:1e:e2:7a:7d:84:88:75:e3:7e:ac:
                    87:72:2b:7d:3e:d2:39:67:71:41:9f:6b:13:01:aa:
                    ca:8b:48:b1:f5:34:94:3b:2b:ed:de:18:87:8f:ff:
                    ee:32:6b:e3:e6:60:a3:be:e5:de:9b:7c:d5:94:e0:
                    22:d6:47:fb:c4:1a:7a:a7:a9
                Exponent: 65537 (0x10001)
    Signature Algorithm: md5WithRSAEncryption
        86:4e:6b:ba:7e:30:83:17:bd:40:b0:5c:b1:3e:b8:84:19:c4:
        be:f0:9f:ae:69:9e:fe:f2:f0:9a:02:8d:23:79:bf:a1:49:c2:
        b6:91:ee:62:3a:ef:3e:10:3a:75:71:7a:28:f3:aa:2f:4e:a8:
        89:b6:c3:f9:de:a3:c6:59:96:c7:c1:7d:c0:21:fa:9f:ae:79:
        eb:88:87:9d:81:86:f1:d1:c4:d3:78:14:05:af:91:8e:d1:d2:
        b4:19:af:c1:0a:59:33:0d:a3:6e:da:98:60:c6:35:87:07:ae:
        df:66:ab:1a:7d:00:6c:a9:c9:eb:a2:17:33:95:91:29:9e:72:
        c5:2d
-----BEGIN CERTIFICATE-----
MIICQTCCAaoCAREwDQYJKoZIhvcNAQEEBQAwcTELMAkGA1UEBhMCQVUxGTAXBgNV
BAgTEFdlc3Rlcm5BdXN0cmFsaWExDjAMBgNVBAcTBVBlcnRoMREwDwYDVQQKEwhD
SVRTMzAwMjEQMA4GA1UECxMHUHJvamVjdDESMBAGA1UEAxMJbG9jYWxob3N0MB4X
DTE0MDUxMzEyNDE1MloXDTE1MDUxMzEyNDE1MlowYTELMAkGA1UEBhMCQVUxGTAX
BgNVBAgTEFdlc3Rlcm5BdXN0cmFsaWExETAPBgNVBAoTCENJVFMzMDAyMRAwDgYD
VQQLEwdQcm9qZWN0MRIwEAYDVQQDEwlsb2NhbGhvc3QwgZ8wDQYJKoZIhvcNAQEB
BQADgY0AMIGJAoGBANsjeFEMQvQ0BPU9h1A6LG8Qa2elJnt6boDMB069bspHCt4i
+njZNfncrPG5V+IGIQua766YYxWkr+DorugmR+Ue4np9hIh1436sh3IrfT7SOWdx
QZ9rEwGqyotIsfU0lDsr7d4Yh4//7jJr4+Zgo77l3pt81ZTgItZH+8QaeqepAgMB
AAEwDQYJKoZIhvcNAQEEBQADgYEAhk5run4wgxe9QLBcsT64hBnEvvCfrmme/vLw
mgKNI3m/oUnCtpHuYjrvPhA6dXF6KPOqL06oibbD+d6jxlmWx8F9wCH6n65564iH
nYGG8dHE03gUBa+RjtHStBmvwQpZMw2jbtqYYMY1hweu32arGn0AbKnJ66IXM5WR
KZ5yxS0=
-----END CERTIFICATE-----
