Certificate:
    Data:
        Version: 1 (0x0)
        Serial Number: 5 (0x5)
        Signature Algorithm: md5WithRSAEncryption
        Issuer: C=AU, ST=WesternAustralia, L=Perth, O=CITS3002, OU=Project, CN=localhost
        Validity
            Not Before: May 13 11:27:40 2014 GMT
            Not After : May 13 11:27:40 2015 GMT
        Subject: C=AU, ST=WesternAustralia, O=CITS3002, OU=Project, CN=localhost
        Subject Public Key Info:
            Public Key Algorithm: rsaEncryption
            RSA Public Key: (1024 bit)
                Modulus (1024 bit):
                    00:db:23:78:51:0c:42:f4:34:04:f5:3d:87:50:3a:
                    2c:6f:10:6b:67:a5:26:7b:7a:6e:80:cc:07:4e:bd:
                    6e:ca:47:0a:de:22:fa:78:d9:35:f9:dc:ac:f1:b9:
                    57:e2:06:21:0b:9a:ef:ae:98:63:15:a4:af:e0:e8:
                    ae:e8:26:47:e5:1e:e2:7a:7d:84:88:75:e3:7e:ac:
                    87:72:2b:7d:3e:d2:39:67:71:41:9f:6b:13:01:aa:
                    ca:8b:48:b1:f5:34:94:3b:2b:ed:de:18:87:8f:ff:
                    ee:32:6b:e3:e6:60:a3:be:e5:de:9b:7c:d5:94:e0:
                    22:d6:47:fb:c4:1a:7a:a7:a9
                Exponent: 65537 (0x10001)
    Signature Algorithm: md5WithRSAEncryption
        ce:45:c4:95:b1:5f:bb:ca:12:a7:73:ef:81:ab:b5:4f:8d:e5:
        4e:a7:d9:ba:a4:ae:00:bd:34:06:96:c6:97:b4:8b:9f:5f:c3:
        c0:ad:2e:1b:5f:b1:af:76:e4:5e:7c:c6:b1:0c:16:78:a9:0c:
        fa:ea:1c:69:c0:8f:17:04:3d:1b:db:ec:1a:eb:16:00:a1:b7:
        16:c8:9b:5a:a4:9f:7b:66:87:1c:f8:55:f1:15:0c:b2:00:c8:
        25:65:f1:3f:4c:94:a0:61:74:e5:02:5c:02:f5:77:9e:24:8b:
        c2:2a:60:44:87:1d:56:0b:eb:b3:23:86:0a:36:f7:d8:a7:88:
        6a:ae
-----BEGIN CERTIFICATE-----
MIICQTCCAaoCAQUwDQYJKoZIhvcNAQEEBQAwcTELMAkGA1UEBhMCQVUxGTAXBgNV
BAgTEFdlc3Rlcm5BdXN0cmFsaWExDjAMBgNVBAcTBVBlcnRoMREwDwYDVQQKEwhD
SVRTMzAwMjEQMA4GA1UECxMHUHJvamVjdDESMBAGA1UEAxMJbG9jYWxob3N0MB4X
DTE0MDUxMzExMjc0MFoXDTE1MDUxMzExMjc0MFowYTELMAkGA1UEBhMCQVUxGTAX
BgNVBAgTEFdlc3Rlcm5BdXN0cmFsaWExETAPBgNVBAoTCENJVFMzMDAyMRAwDgYD
VQQLEwdQcm9qZWN0MRIwEAYDVQQDEwlsb2NhbGhvc3QwgZ8wDQYJKoZIhvcNAQEB
BQADgY0AMIGJAoGBANsjeFEMQvQ0BPU9h1A6LG8Qa2elJnt6boDMB069bspHCt4i
+njZNfncrPG5V+IGIQua766YYxWkr+DorugmR+Ue4np9hIh1436sh3IrfT7SOWdx
QZ9rEwGqyotIsfU0lDsr7d4Yh4//7jJr4+Zgo77l3pt81ZTgItZH+8QaeqepAgMB
AAEwDQYJKoZIhvcNAQEEBQADgYEAzkXElbFfu8oSp3Pvgau1T43lTqfZuqSuAL00
BpbGl7SLn1/DwK0uG1+xr3bkXnzGsQwWeKkM+uocacCPFwQ9G9vsGusWAKG3Fsib
WqSfe2aHHPhV8RUMsgDIJWXxP0yUoGF05QJcAvV3niSLwipgRIcdVgvrsyOGCjb3
2KeIaq4=
-----END CERTIFICATE-----
