Certificate:
    Data:
        Version: 1 (0x0)
        Serial Number: 23 (0x17)
        Signature Algorithm: md5WithRSAEncryption
        Issuer: C=AU, ST=WesternAustralia, O=CITS3002, OU=Project, CN=localhost
        Validity
            Not Before: May 13 12:41:52 2014 GMT
            Not After : May 13 12:41:52 2015 GMT
        Subject: C=AU, ST=WesternAustralia, O=CITS3002, OU=Project, CN=localhost
        Subject Public Key Info:
            Public Key Algorithm: rsaEncryption
            RSA Public Key: (1024 bit)
                Modulus (1024 bit):
                    00:dd:de:bb:f6:75:e1:b2:b1:17:80:3a:3d:b8:de:
                    00:cb:80:14:45:1c:8e:c8:f9:f5:2c:40:d8:12:18:
                    36:50:a7:ba:ce:fe:9a:39:9e:68:a9:49:0e:34:34:
                    b2:3d:43:12:28:28:fe:5b:c1:d5:07:da:6b:ad:9d:
                    49:ef:a2:0d:4a:83:bb:e6:27:6a:14:80:54:37:da:
                    51:d4:53:6a:9a:c3:02:08:f9:99:6f:6a:57:9f:e2:
                    ce:55:d6:30:24:1b:6f:95:87:7a:b4:a3:38:3d:8f:
                    91:95:d3:70:58:5e:d0:0d:94:44:70:a1:a5:1e:af:
                    c4:fa:d4:3d:6a:cb:67:a2:a3
                Exponent: 65537 (0x10001)
    Signature Algorithm: md5WithRSAEncryption
        05:7b:9f:17:e0:cc:f8:b4:f8:63:8a:09:7f:3a:fb:ce:98:f5:
        6c:04:49:ec:22:39:0a:1c:01:00:23:21:64:2a:2e:4e:ba:34:
        60:fa:da:24:1a:6f:cf:6b:79:1d:8d:c2:bb:f2:0f:4e:8e:d9:
        16:51:be:26:38:3b:77:01:dd:05:2d:88:41:12:d3:0d:76:0d:
        0e:a7:ed:e1:31:a1:8c:fe:cc:b7:fe:cc:4b:7d:cf:a6:8d:aa:
        00:50:57:2a:df:c4:62:e2:8f:2f:58:ee:3f:09:0f:ca:91:5f:
        a3:74:76:ad:6d:d9:d5:92:60:1f:87:ae:d2:f2:5c:33:21:fc:
        bf:29
-----BEGIN CERTIFICATE-----
MIICMTCCAZoCARcwDQYJKoZIhvcNAQEEBQAwYTELMAkGA1UEBhMCQVUxGTAXBgNV
BAgTEFdlc3Rlcm5BdXN0cmFsaWExETAPBgNVBAoTCENJVFMzMDAyMRAwDgYDVQQL
EwdQcm9qZWN0MRIwEAYDVQQDEwlsb2NhbGhvc3QwHhcNMTQwNTEzMTI0MTUyWhcN
MTUwNTEzMTI0MTUyWjBhMQswCQYDVQQGEwJBVTEZMBcGA1UECBMQV2VzdGVybkF1
c3RyYWxpYTERMA8GA1UEChMIQ0lUUzMwMDIxEDAOBgNVBAsTB1Byb2plY3QxEjAQ
BgNVBAMTCWxvY2FsaG9zdDCBnzANBgkqhkiG9w0BAQEFAAOBjQAwgYkCgYEA3d67
9nXhsrEXgDo9uN4Ay4AURRyOyPn1LEDYEhg2UKe6zv6aOZ5oqUkONDSyPUMSKCj+
W8HVB9prrZ1J76INSoO75idqFIBUN9pR1FNqmsMCCPmZb2pXn+LOVdYwJBtvlYd6
tKM4PY+RldNwWF7QDZREcKGlHq/E+tQ9astnoqMCAwEAATANBgkqhkiG9w0BAQQF
AAOBgQAFe58X4Mz4tPhjigl/OvvOmPVsBEnsIjkKHAEAIyFkKi5OujRg+tokGm/P
a3kdjcK78g9OjtkWUb4mODt3Ad0FLYhBEtMNdg0Op+3hMaGM/sy3/sxLfc+mjaoA
UFcq38Ri4o8vWO4/CQ/KkV+jdHatbdnVkmAfh67S8lwzIfy/KQ==
-----END CERTIFICATE-----
