Certificate:
    Data:
        Version: 1 (0x0)
        Serial Number: 24 (0x18)
        Signature Algorithm: md5WithRSAEncryption
        Issuer: C=AU, ST=WesternAustralia, O=CITS3002, OU=Project, CN=localhost
        Validity
            Not Before: May 13 12:41:52 2014 GMT
            Not After : May 13 12:41:52 2015 GMT
        Subject: C=AU, ST=WesternAustralia, O=CITS3002, OU=Project, CN=localhost
        Subject Public Key Info:
            Public Key Algorithm: rsaEncryption
            RSA Public Key: (1024 bit)
                Modulus (1024 bit):
                    00:da:0b:e7:d2:8c:c0:31:6e:e8:6c:03:f7:14:a0:
                    0b:94:8e:92:e8:3c:3d:f6:63:d0:6c:79:45:9c:c1:
                    ea:f9:6e:5d:00:25:38:02:f7:a9:b5:24:b9:28:b5:
                    59:da:54:bd:f7:c3:3d:96:48:a6:be:7f:a2:8c:14:
                    ad:92:af:77:24:38:e0:2b:ec:9f:5f:c4:c0:77:7c:
                    86:70:bf:ce:14:d0:51:cb:99:b7:8d:e3:5e:f1:4b:
                    28:8b:16:66:f5:d3:5a:2b:00:19:d5:9e:89:8e:40:
                    e8:0d:67:80:fb:7d:05:bd:9d:e2:ee:41:01:e1:0b:
                    9b:27:14:7c:83:52:03:c5:a7
                Exponent: 65537 (0x10001)
    Signature Algorithm: md5WithRSAEncryption
        97:d7:ea:0b:bf:12:19:df:4e:70:86:ee:fd:68:db:89:61:2f:
        59:28:df:f9:f2:97:3e:f3:92:12:c3:23:64:6b:d6:a0:61:86:
        eb:aa:32:a7:54:4a:e7:d3:f7:77:ce:1f:8d:f6:8e:c5:a2:78:
        7d:33:bb:20:e3:20:52:af:c7:e7:b1:c7:6a:67:52:b3:d7:a0:
        58:a9:d7:c5:69:0f:70:1e:8e:12:c3:d2:dc:d3:a3:45:b8:d2:
        2e:f6:22:32:90:6c:1c:ae:68:77:95:65:f2:60:ef:e4:85:c2:
        58:ec:d1:e4:6f:da:5c:48:0c:d2:1a:a9:54:77:eb:56:a1:c3:
        5b:3e
-----BEGIN CERTIFICATE-----
MIICMTCCAZoCARgwDQYJKoZIhvcNAQEEBQAwYTELMAkGA1UEBhMCQVUxGTAXBgNV
BAgTEFdlc3Rlcm5BdXN0cmFsaWExETAPBgNVBAoTCENJVFMzMDAyMRAwDgYDVQQL
EwdQcm9qZWN0MRIwEAYDVQQDEwlsb2NhbGhvc3QwHhcNMTQwNTEzMTI0MTUyWhcN
MTUwNTEzMTI0MTUyWjBhMQswCQYDVQQGEwJBVTEZMBcGA1UECBMQV2VzdGVybkF1
c3RyYWxpYTERMA8GA1UEChMIQ0lUUzMwMDIxEDAOBgNVBAsTB1Byb2plY3QxEjAQ
BgNVBAMTCWxvY2FsaG9zdDCBnzANBgkqhkiG9w0BAQEFAAOBjQAwgYkCgYEA2gvn
0ozAMW7obAP3FKALlI6S6Dw99mPQbHlFnMHq+W5dACU4AveptSS5KLVZ2lS998M9
lkimvn+ijBStkq93JDjgK+yfX8TAd3yGcL/OFNBRy5m3jeNe8UsoixZm9dNaKwAZ
1Z6JjkDoDWeA+30FvZ3i7kEB4QubJxR8g1IDxacCAwEAATANBgkqhkiG9w0BAQQF
AAOBgQCX1+oLvxIZ305whu79aNuJYS9ZKN/58pc+85ISwyNka9agYYbrqjKnVErn
0/d3zh+N9o7Fonh9M7sg4yBSr8fnscdqZ1Kz16BYqdfFaQ9wHo4Sw9Lc06NFuNIu
9iIykGwcrmh3lWXyYO/khcJY7NHkb9pcSAzSGqlUd+tWocNbPg==
-----END CERTIFICATE-----
