Certificate:
    Data:
        Version: 1 (0x0)
        Serial Number: 12 (0xc)
        Signature Algorithm: md5WithRSAEncryption
        Issuer: C=AU, ST=WesternAustralia, L=Perth, O=CITS3002, OU=Project, CN=localhost
        Validity
            Not Before: May 13 11:27:40 2014 GMT
            Not After : May 13 11:27:40 2015 GMT
        Subject: C=AU, ST=WesternAustralia, O=CITS3002, OU=Project, CN=localhost
        Subject Public Key Info:
            Public Key Algorithm: rsaEncryption
            RSA Public Key: (1024 bit)
                Modulus (1024 bit):
                    00:da:0b:e7:d2:8c:c0:31:6e:e8:6c:03:f7:14:a0:
                    0b:94:8e:92:e8:3c:3d:f6:63:d0:6c:79:45:9c:c1:
                    ea:f9:6e:5d:00:25:38:02:f7:a9:b5:24:b9:28:b5:
                    59:da:54:bd:f7:c3:3d:96:48:a6:be:7f:a2:8c:14:
                    ad:92:af:77:24:38:e0:2b:ec:9f:5f:c4:c0:77:7c:
                    86:70:bf:ce:14:d0:51:cb:99:b7:8d:e3:5e:f1:4b:
                    28:8b:16:66:f5:d3:5a:2b:00:19:d5:9e:89:8e:40:
                    e8:0d:67:80:fb:7d:05:bd:9d:e2:ee:41:01:e1:0b:
                    9b:27:14:7c:83:52:03:c5:a7
                Exponent: 65537 (0x10001)
    Signature Algorithm: md5WithRSAEncryption
        38:a5:5d:1a:fc:43:db:af:65:ab:d2:fe:ed:d4:06:ad:a8:d2:
        fd:3f:52:41:ac:3c:e5:a1:c1:94:44:69:27:5d:c0:67:28:4d:
        39:e8:02:06:e2:3f:1a:d8:9f:05:4b:92:88:13:71:6c:4d:6e:
        32:48:64:d1:41:c0:b5:dd:84:77:f8:1a:66:f0:90:9f:6a:a4:
        ba:53:97:58:21:42:99:dd:19:1e:d8:f1:69:d5:17:14:3f:79:
        22:b6:b0:66:ae:70:f8:57:07:8b:a5:a4:f4:01:fe:ae:7d:b9:
        a3:2b:71:3a:00:d4:3b:62:ad:a8:e6:10:3b:32:93:39:f9:82:
        47:7a
-----BEGIN CERTIFICATE-----
MIICQTCCAaoCAQwwDQYJKoZIhvcNAQEEBQAwcTELMAkGA1UEBhMCQVUxGTAXBgNV
BAgTEFdlc3Rlcm5BdXN0cmFsaWExDjAMBgNVBAcTBVBlcnRoMREwDwYDVQQKEwhD
SVRTMzAwMjEQMA4GA1UECxMHUHJvamVjdDESMBAGA1UEAxMJbG9jYWxob3N0MB4X
DTE0MDUxMzExMjc0MFoXDTE1MDUxMzExMjc0MFowYTELMAkGA1UEBhMCQVUxGTAX
BgNVBAgTEFdlc3Rlcm5BdXN0cmFsaWExETAPBgNVBAoTCENJVFMzMDAyMRAwDgYD
VQQLEwdQcm9qZWN0MRIwEAYDVQQDEwlsb2NhbGhvc3QwgZ8wDQYJKoZIhvcNAQEB
BQADgY0AMIGJAoGBANoL59KMwDFu6GwD9xSgC5SOkug8PfZj0Gx5RZzB6vluXQAl
OAL3qbUkuSi1WdpUvffDPZZIpr5/oowUrZKvdyQ44Cvsn1/EwHd8hnC/zhTQUcuZ
t43jXvFLKIsWZvXTWisAGdWeiY5A6A1ngPt9Bb2d4u5BAeELmycUfINSA8WnAgMB
AAEwDQYJKoZIhvcNAQEEBQADgYEAOKVdGvxD269lq9L+7dQGrajS/T9SQaw85aHB
lERpJ13AZyhNOegCBuI/GtifBUuSiBNxbE1uMkhk0UHAtd2Ed/gaZvCQn2qkulOX
WCFCmd0ZHtjxadUXFD95IrawZq5w+FcHi6Wk9AH+rn25oytxOgDUO2KtqOYQOzKT
OfmCR3o=
-----END CERTIFICATE-----
