Certificate:
    Data:
        Version: 1 (0x0)
        Serial Number: 19 (0x13)
        Signature Algorithm: md5WithRSAEncryption
        Issuer: C=AU, ST=WesternAustralia, O=CITS3002, OU=Project, CN=localhost
        Validity
            Not Before: May 13 12:41:52 2014 GMT
            Not After : May 13 12:41:52 2015 GMT
        Subject: C=AU, ST=WesternAustralia, O=CITS3002, OU=Project, CN=localhost
        Subject Public Key Info:
            Public Key Algorithm: rsaEncryption
            RSA Public Key: (1024 bit)
                Modulus (1024 bit):
                    00:b8:82:af:93:5c:f6:25:95:bf:39:0b:4d:19:2c:
                    c0:87:29:90:ff:dd:73:03:d6:92:33:40:05:06:af:
                    6c:ef:82:0b:af:4f:76:84:57:b3:22:08:a6:83:fe:
                    00:63:ca:22:bb:bc:92:71:db:f0:06:1f:f0:05:ba:
                    b9:76:f6:a1:0a:98:41:b9:87:87:c2:ec:cb:8c:eb:
                    7c:6c:9c:70:70:3a:fb:f9:8a:d3:4e:f6:6d:6a:99:
                    1a:8d:5f:6e:63:7b:d5:3f:50:a9:b9:28:3b:ec:61:
                    b1:fd:39:16:cb:b7:c6:87:ab:5c:19:9d:2c:cf:9e:
                    77:6f:c3:3f:47:8a:79:a6:15
                Exponent: 65537 (0x10001)
    Signature Algorithm: md5WithRSAEncryption
        a5:6e:97:3a:d6:a4:22:8a:26:27:93:ed:8c:d0:f5:40:f6:ea:
        a3:84:be:49:a7:18:9d:56:cd:41:ff:42:9a:cf:8e:8b:08:8f:
        9a:85:f1:13:44:19:bc:a1:fd:86:2c:31:ab:8c:fd:36:a5:36:
        18:01:08:51:88:21:4e:ec:9e:44:ea:bd:f1:3f:ab:6b:df:37:
        0c:65:84:37:be:7d:f6:4a:77:3f:f4:6d:b9:4a:ff:b1:a3:cd:
        29:f8:69:5f:2e:8f:6b:58:1a:30:40:74:fc:8c:b0:35:28:41:
        bd:d0:79:8e:c4:6c:e0:5d:23:e2:1d:38:bc:bb:34:7e:e5:d0:
        95:3a
-----BEGIN CERTIFICATE-----
MIICMTCCAZoCARMwDQYJKoZIhvcNAQEEBQAwYTELMAkGA1UEBhMCQVUxGTAXBgNV
BAgTEFdlc3Rlcm5BdXN0cmFsaWExETAPBgNVBAoTCENJVFMzMDAyMRAwDgYDVQQL
EwdQcm9qZWN0MRIwEAYDVQQDEwlsb2NhbGhvc3QwHhcNMTQwNTEzMTI0MTUyWhcN
MTUwNTEzMTI0MTUyWjBhMQswCQYDVQQGEwJBVTEZMBcGA1UECBMQV2VzdGVybkF1
c3RyYWxpYTERMA8GA1UEChMIQ0lUUzMwMDIxEDAOBgNVBAsTB1Byb2plY3QxEjAQ
BgNVBAMTCWxvY2FsaG9zdDCBnzANBgkqhkiG9w0BAQEFAAOBjQAwgYkCgYEAuIKv
k1z2JZW/OQtNGSzAhymQ/91zA9aSM0AFBq9s74ILr092hFezIgimg/4AY8oiu7yS
cdvwBh/wBbq5dvahCphBuYeHwuzLjOt8bJxwcDr7+YrTTvZtapkajV9uY3vVP1Cp
uSg77GGx/TkWy7fGh6tcGZ0sz553b8M/R4p5phUCAwEAATANBgkqhkiG9w0BAQQF
AAOBgQClbpc61qQiiiYnk+2M0PVA9uqjhL5JpxidVs1B/0Kaz46LCI+ahfETRBm8
of2GLDGrjP02pTYYAQhRiCFO7J5E6r3xP6tr3zcMZYQ3vn32Snc/9G25Sv+xo80p
+GlfLo9rWBowQHT8jLA1KEG90HmOxGzgXSPiHTi8uzR+5dCVOg==
-----END CERTIFICATE-----
