Certificate:
    Data:
        Version: 1 (0x0)
        Serial Number: 26 (0x1a)
        Signature Algorithm: md5WithRSAEncryption
        Issuer: C=AU, ST=WesternAustralia, O=CITS3002, OU=Project, CN=localhost
        Validity
            Not Before: May 13 12:41:52 2014 GMT
            Not After : May 13 12:41:52 2015 GMT
        Subject: C=AU, ST=WesternAustralia, O=CITS3002, OU=Project, CN=localhost
        Subject Public Key Info:
            Public Key Algorithm: rsaEncryption
            RSA Public Key: (1024 bit)
                Modulus (1024 bit):
                    00:a4:06:5d:ea:92:85:b8:7e:d1:a4:86:f5:fb:0e:
                    d0:00:7a:97:ed:bb:19:1a:74:75:6a:43:e5:05:9e:
                    ae:3f:f7:34:10:d2:41:9f:b7:da:de:23:34:10:f2:
                    2c:a3:3a:91:df:a3:68:28:6b:76:2c:2a:d3:6d:67:
                    f5:a3:f9:65:bd:52:d0:a2:4f:df:2a:ce:a2:bc:c1:
                    a2:62:ca:89:b8:3a:8c:14:93:ec:48:17:6d:05:c1:
                    41:47:62:5a:9f:32:cc:17:2b:01:a7:aa:7e:93:40:
                    4a:db:d6:54:c0:e6:72:ef:e8:31:e3:7d:3c:e5:0f:
                    7e:ea:93:36:99:35:c8:0c:3b
                Exponent: 65537 (0x10001)
    Signature Algorithm: md5WithRSAEncryption
        0e:bc:82:32:f9:a0:d0:04:89:f8:db:65:a8:da:fe:90:88:3b:
        61:01:b0:62:d2:28:a1:a1:94:26:96:c6:ea:ac:60:c6:af:2b:
        e3:db:1d:23:5c:5a:41:73:91:06:96:9d:24:d9:8a:72:db:bf:
        6c:01:94:35:78:2e:63:9d:a0:38:99:6c:f9:a0:d8:2b:96:8a:
        87:4d:20:3b:96:f2:f6:b9:92:0a:f1:13:c5:8c:a9:19:93:02:
        f2:08:a9:41:3f:a0:7e:05:32:a4:01:be:f9:c4:16:ab:65:cd:
        64:71:12:07:bc:1d:86:46:c5:44:9a:13:cc:5b:d8:84:17:50:
        e3:51
-----BEGIN CERTIFICATE-----
MIICMTCCAZoCARowDQYJKoZIhvcNAQEEBQAwYTELMAkGA1UEBhMCQVUxGTAXBgNV
BAgTEFdlc3Rlcm5BdXN0cmFsaWExETAPBgNVBAoTCENJVFMzMDAyMRAwDgYDVQQL
EwdQcm9qZWN0MRIwEAYDVQQDEwlsb2NhbGhvc3QwHhcNMTQwNTEzMTI0MTUyWhcN
MTUwNTEzMTI0MTUyWjBhMQswCQYDVQQGEwJBVTEZMBcGA1UECBMQV2VzdGVybkF1
c3RyYWxpYTERMA8GA1UEChMIQ0lUUzMwMDIxEDAOBgNVBAsTB1Byb2plY3QxEjAQ
BgNVBAMTCWxvY2FsaG9zdDCBnzANBgkqhkiG9w0BAQEFAAOBjQAwgYkCgYEApAZd
6pKFuH7RpIb1+w7QAHqX7bsZGnR1akPlBZ6uP/c0ENJBn7fa3iM0EPIsozqR36No
KGt2LCrTbWf1o/llvVLQok/fKs6ivMGiYsqJuDqMFJPsSBdtBcFBR2JanzLMFysB
p6p+k0BK29ZUwOZy7+gx43085Q9+6pM2mTXIDDsCAwEAATANBgkqhkiG9w0BAQQF
AAOBgQAOvIIy+aDQBIn422Wo2v6QiDthAbBi0iihoZQmlsbqrGDGryvj2x0jXFpB
c5EGlp0k2Ypy279sAZQ1eC5jnaA4mWz5oNgrloqHTSA7lvL2uZIK8RPFjKkZkwLy
CKlBP6B+BTKkAb75xBarZc1kcRIHvB2GRsVEmhPMW9iEF1DjUQ==
-----END CERTIFICATE-----
