Certificate:
    Data:
        Version: 1 (0x0)
        Serial Number: 22 (0x16)
        Signature Algorithm: md5WithRSAEncryption
        Issuer: C=AU, ST=WesternAustralia, L=Perth, O=CITS3002, OU=Project, CN=localhost
        Validity
            Not Before: May 13 12:41:52 2014 GMT
            Not After : May 13 12:41:52 2015 GMT
        Subject: C=AU, ST=WesternAustralia, O=CITS3002, OU=Project, CN=localhost
        Subject Public Key Info:
            Public Key Algorithm: rsaEncryption
            RSA Public Key: (1024 bit)
                Modulus (1024 bit):
                    00:b1:71:51:69:bb:07:7c:89:bd:91:06:37:0d:8d:
                    4f:11:2e:71:a7:6a:29:ba:89:39:77:81:3f:29:af:
                    51:7d:96:ab:4e:9f:4d:9e:3f:aa:c9:1c:c2:55:56:
                    b2:17:eb:ac:8c:b8:c1:a9:40:4f:ba:0d:d3:48:42:
                    37:a6:11:2b:2c:63:c3:d7:ad:d2:eb:52:67:f7:e6:
                    d1:7b:45:fe:e1:8c:b3:a0:4b:f7:86:84:64:32:d5:
                    2a:ad:8d:c7:b7:b7:ef:f5:b6:c6:fc:54:ed:f0:64:
                    f7:7c:48:1b:3f:51:09:0e:94:f5:38:f3:28:66:c9:
                    d1:50:f9:ad:18:07:29:7b:b5
                Exponent: 65537 (0x10001)
    Signature Algorithm: md5WithRSAEncryption
        94:ca:21:85:5e:29:34:35:1b:a0:05:ad:b3:ff:50:d8:93:fc:
        f2:50:76:8e:37:02:cd:88:7d:b4:17:85:4a:e7:5d:4c:e2:40:
        57:a3:48:d3:c2:92:9e:1d:1c:06:1f:91:31:50:03:94:1d:ad:
        06:e2:56:c5:26:2e:7c:88:5f:1b:4b:d2:cb:f4:0d:6c:78:f0:
        d9:83:f6:0a:e2:9a:fb:c6:97:12:97:47:ae:c8:18:09:4b:9f:
        8d:e1:64:f2:28:25:c0:06:3f:bb:bb:6a:ae:67:e1:17:ef:01:
        77:7f:5d:36:64:07:a3:b6:a2:b0:bc:c1:12:6f:34:5e:47:c2:
        5e:e5
-----BEGIN CERTIFICATE-----
MIICQTCCAaoCARYwDQYJKoZIhvcNAQEEBQAwcTELMAkGA1UEBhMCQVUxGTAXBgNV
BAgTEFdlc3Rlcm5BdXN0cmFsaWExDjAMBgNVBAcTBVBlcnRoMREwDwYDVQQKEwhD
SVRTMzAwMjEQMA4GA1UECxMHUHJvamVjdDESMBAGA1UEAxMJbG9jYWxob3N0MB4X
DTE0MDUxMzEyNDE1MloXDTE1MDUxMzEyNDE1MlowYTELMAkGA1UEBhMCQVUxGTAX
BgNVBAgTEFdlc3Rlcm5BdXN0cmFsaWExETAPBgNVBAoTCENJVFMzMDAyMRAwDgYD
VQQLEwdQcm9qZWN0MRIwEAYDVQQDEwlsb2NhbGhvc3QwgZ8wDQYJKoZIhvcNAQEB
BQADgY0AMIGJAoGBALFxUWm7B3yJvZEGNw2NTxEucadqKbqJOXeBPymvUX2Wq06f
TZ4/qskcwlVWshfrrIy4walAT7oN00hCN6YRKyxjw9et0utSZ/fm0XtF/uGMs6BL
94aEZDLVKq2Nx7e37/W2xvxU7fBk93xIGz9RCQ6U9TjzKGbJ0VD5rRgHKXu1AgMB
AAEwDQYJKoZIhvcNAQEEBQADgYEAlMohhV4pNDUboAWts/9Q2JP88lB2jjcCzYh9
tBeFSuddTOJAV6NI08KSnh0cBh+RMVADlB2tBuJWxSYufIhfG0vSy/QNbHjw2YP2
CuKa+8aXEpdHrsgYCUufjeFk8iglwAY/u7tqrmfhF+8Bd39dNmQHo7aisLzBEm80
XkfCXuU=
-----END CERTIFICATE-----
