Certificate:
    Data:
        Version: 1 (0x0)
        Serial Number: 2 (0x2)
        Signature Algorithm: md5WithRSAEncryption
        Issuer: C=AU, ST=WesternAustralia, L=Perth, O=CITS3002, OU=Project, CN=localhost
        Validity
            Not Before: May 13 11:01:11 2014 GMT
            Not After : May 13 11:01:11 2015 GMT
        Subject: C=AU, ST=WesternAustralia, O=CITS3002, OU=Project, CN=localhost
        Subject Public Key Info:
            Public Key Algorithm: rsaEncryption
            RSA Public Key: (1024 bit)
                Modulus (1024 bit):
                    00:ed:a1:23:ad:0b:a9:b3:09:f9:35:42:52:c5:ae:
                    1d:f1:9e:54:c6:a5:b5:4a:4d:1b:24:7b:02:d7:e7:
                    73:0d:8c:d5:bf:75:5d:04:6f:49:69:20:bc:5b:bb:
                    54:49:4e:45:f6:f4:ab:ba:bd:4a:83:82:34:0c:48:
                    2a:2f:d9:02:a7:0f:b4:b9:0d:3d:8a:eb:75:b8:ac:
                    28:ef:ef:d5:27:bb:a0:4c:e2:bf:10:82:ac:5c:6a:
                    b6:d8:66:03:89:15:bb:ac:f8:72:83:11:19:b3:2a:
                    f8:9c:e6:95:67:4f:ec:f0:1c:19:12:26:4f:ed:ee:
                    c2:f6:98:6d:9e:13:f4:26:8f
                Exponent: 65537 (0x10001)
    Signature Algorithm: md5WithRSAEncryption
        44:6f:de:69:88:05:eb:b4:c1:76:7a:2d:cf:0e:f9:3b:05:5a:
        03:36:a1:00:3a:9f:b2:62:09:b2:5f:2b:5f:de:ef:52:1a:d5:
        38:94:04:c0:2a:a8:52:db:39:04:ec:e7:e5:3f:75:4a:e4:1d:
        78:27:dc:39:f8:4f:7f:d5:8e:da:3c:6f:62:95:d4:ce:1a:38:
        cb:61:05:24:e9:ff:96:50:99:ed:ba:6a:fa:91:7e:6c:bb:11:
        c7:d4:27:97:b4:a5:68:fe:f5:fb:45:f1:07:00:14:27:36:14:
        87:b2:ce:98:3e:25:a0:8b:80:e0:49:39:3b:0b:4a:4d:91:ac:
        30:8e
-----BEGIN CERTIFICATE-----
MIICQTCCAaoCAQIwDQYJKoZIhvcNAQEEBQAwcTELMAkGA1UEBhMCQVUxGTAXBgNV
BAgTEFdlc3Rlcm5BdXN0cmFsaWExDjAMBgNVBAcTBVBlcnRoMREwDwYDVQQKEwhD
SVRTMzAwMjEQMA4GA1UECxMHUHJvamVjdDESMBAGA1UEAxMJbG9jYWxob3N0MB4X
DTE0MDUxMzExMDExMVoXDTE1MDUxMzExMDExMVowYTELMAkGA1UEBhMCQVUxGTAX
BgNVBAgTEFdlc3Rlcm5BdXN0cmFsaWExETAPBgNVBAoTCENJVFMzMDAyMRAwDgYD
VQQLEwdQcm9qZWN0MRIwEAYDVQQDEwlsb2NhbGhvc3QwgZ8wDQYJKoZIhvcNAQEB
BQADgY0AMIGJAoGBAO2hI60LqbMJ+TVCUsWuHfGeVMaltUpNGyR7Atfncw2M1b91
XQRvSWkgvFu7VElORfb0q7q9SoOCNAxIKi/ZAqcPtLkNPYrrdbisKO/v1Se7oEzi
vxCCrFxqtthmA4kVu6z4coMRGbMq+JzmlWdP7PAcGRImT+3uwvaYbZ4T9CaPAgMB
AAEwDQYJKoZIhvcNAQEEBQADgYEARG/eaYgF67TBdnotzw75OwVaAzahADqfsmIJ
sl8rX97vUhrVOJQEwCqoUts5BOzn5T91SuQdeCfcOfhPf9WO2jxvYpXUzho4y2EF
JOn/llCZ7bpq+pF+bLsRx9Qnl7SlaP71+0XxBwAUJzYUh7LOmD4loIuA4Ek5OwtK
TZGsMI4=
-----END CERTIFICATE-----
