Certificate:
    Data:
        Version: 1 (0x0)
        Serial Number: 4 (0x4)
        Signature Algorithm: md5WithRSAEncryption
        Issuer: C=AU, ST=WesternAustralia, L=Perth, O=CITS3002, OU=Project, CN=localhost
        Validity
            Not Before: May 13 11:27:24 2014 GMT
            Not After : May 13 11:27:24 2015 GMT
        Subject: C=AU, ST=WesternAustralia, O=CITS3002, OU=Project, CN=localhost
        Subject Public Key Info:
            Public Key Algorithm: rsaEncryption
            RSA Public Key: (1024 bit)
                Modulus (1024 bit):
                    00:db:23:78:51:0c:42:f4:34:04:f5:3d:87:50:3a:
                    2c:6f:10:6b:67:a5:26:7b:7a:6e:80:cc:07:4e:bd:
                    6e:ca:47:0a:de:22:fa:78:d9:35:f9:dc:ac:f1:b9:
                    57:e2:06:21:0b:9a:ef:ae:98:63:15:a4:af:e0:e8:
                    ae:e8:26:47:e5:1e:e2:7a:7d:84:88:75:e3:7e:ac:
                    87:72:2b:7d:3e:d2:39:67:71:41:9f:6b:13:01:aa:
                    ca:8b:48:b1:f5:34:94:3b:2b:ed:de:18:87:8f:ff:
                    ee:32:6b:e3:e6:60:a3:be:e5:de:9b:7c:d5:94:e0:
                    22:d6:47:fb:c4:1a:7a:a7:a9
                Exponent: 65537 (0x10001)
    Signature Algorithm: md5WithRSAEncryption
        9a:a7:3d:a3:e3:26:5f:cf:e1:ef:b4:a0:20:79:2e:61:97:ba:
        d6:43:58:40:ef:d8:28:1f:8c:05:fa:58:4e:fb:6d:3b:ae:a2:
        ae:2f:65:bc:fa:b3:47:81:ba:0c:6c:74:a5:28:4a:b3:5f:cb:
        b7:12:ea:72:5c:b7:fc:a3:28:5e:df:11:6f:0a:64:8a:fa:65:
        1e:88:ac:4a:aa:98:56:2b:41:d5:4b:4f:9b:fd:da:ad:9b:86:
        3a:a0:43:bd:03:e6:88:f8:b6:96:ca:60:38:35:a5:7f:18:10:
        4d:2b:0b:00:b7:f8:3b:c2:72:90:08:62:08:49:ef:1c:d6:dc:
        2e:69
-----BEGIN CERTIFICATE-----
MIICQTCCAaoCAQQwDQYJKoZIhvcNAQEEBQAwcTELMAkGA1UEBhMCQVUxGTAXBgNV
BAgTEFdlc3Rlcm5BdXN0cmFsaWExDjAMBgNVBAcTBVBlcnRoMREwDwYDVQQKEwhD
SVRTMzAwMjEQMA4GA1UECxMHUHJvamVjdDESMBAGA1UEAxMJbG9jYWxob3N0MB4X
DTE0MDUxMzExMjcyNFoXDTE1MDUxMzExMjcyNFowYTELMAkGA1UEBhMCQVUxGTAX
BgNVBAgTEFdlc3Rlcm5BdXN0cmFsaWExETAPBgNVBAoTCENJVFMzMDAyMRAwDgYD
VQQLEwdQcm9qZWN0MRIwEAYDVQQDEwlsb2NhbGhvc3QwgZ8wDQYJKoZIhvcNAQEB
BQADgY0AMIGJAoGBANsjeFEMQvQ0BPU9h1A6LG8Qa2elJnt6boDMB069bspHCt4i
+njZNfncrPG5V+IGIQua766YYxWkr+DorugmR+Ue4np9hIh1436sh3IrfT7SOWdx
QZ9rEwGqyotIsfU0lDsr7d4Yh4//7jJr4+Zgo77l3pt81ZTgItZH+8QaeqepAgMB
AAEwDQYJKoZIhvcNAQEEBQADgYEAmqc9o+MmX8/h77SgIHkuYZe61kNYQO/YKB+M
BfpYTvttO66iri9lvPqzR4G6DGx0pShKs1/LtxLqcly3/KMoXt8RbwpkivplHois
SqqYVitB1UtPm/3arZuGOqBDvQPmiPi2lspgODWlfxgQTSsLALf4O8JykAhiCEnv
HNbcLmk=
-----END CERTIFICATE-----
