Certificate:
    Data:
        Version: 1 (0x0)
        Serial Number: 7 (0x7)
        Signature Algorithm: md5WithRSAEncryption
        Issuer: C=AU, ST=WesternAustralia, L=Perth, O=CITS3002, OU=Project, CN=localhost
        Validity
            Not Before: May 13 11:27:40 2014 GMT
            Not After : May 13 11:27:40 2015 GMT
        Subject: C=AU, ST=WesternAustralia, O=CITS3002, OU=Project, CN=localhost
        Subject Public Key Info:
            Public Key Algorithm: rsaEncryption
            RSA Public Key: (1024 bit)
                Modulus (1024 bit):
                    00:b8:82:af:93:5c:f6:25:95:bf:39:0b:4d:19:2c:
                    c0:87:29:90:ff:dd:73:03:d6:92:33:40:05:06:af:
                    6c:ef:82:0b:af:4f:76:84:57:b3:22:08:a6:83:fe:
                    00:63:ca:22:bb:bc:92:71:db:f0:06:1f:f0:05:ba:
                    b9:76:f6:a1:0a:98:41:b9:87:87:c2:ec:cb:8c:eb:
                    7c:6c:9c:70:70:3a:fb:f9:8a:d3:4e:f6:6d:6a:99:
                    1a:8d:5f:6e:63:7b:d5:3f:50:a9:b9:28:3b:ec:61:
                    b1:fd:39:16:cb:b7:c6:87:ab:5c:19:9d:2c:cf:9e:
                    77:6f:c3:3f:47:8a:79:a6:15
                Exponent: 65537 (0x10001)
    Signature Algorithm: md5WithRSAEncryption
        a5:b8:09:3e:9c:13:86:0b:0d:3e:18:72:b1:2b:6a:0d:cb:ed:
        dd:00:2c:89:e8:37:1e:9d:9c:0a:40:26:17:5f:40:2f:2b:96:
        ec:d9:34:33:8d:53:78:8d:6d:1f:4c:be:66:cd:14:f0:f0:64:
        61:90:4e:1a:c3:87:a5:23:dd:33:96:ae:22:67:85:99:65:4b:
        12:8a:74:3a:30:6a:ca:64:ca:2b:3b:35:2d:bd:5b:45:8c:32:
        a3:b5:9a:4f:37:ca:a3:f3:14:2b:1c:b6:b1:7e:b4:3a:73:3b:
        59:b1:50:ff:92:1c:3d:2d:e9:bd:a1:1b:f1:28:cf:60:08:1f:
        af:4a
-----BEGIN CERTIFICATE-----
MIICQTCCAaoCAQcwDQYJKoZIhvcNAQEEBQAwcTELMAkGA1UEBhMCQVUxGTAXBgNV
BAgTEFdlc3Rlcm5BdXN0cmFsaWExDjAMBgNVBAcTBVBlcnRoMREwDwYDVQQKEwhD
SVRTMzAwMjEQMA4GA1UECxMHUHJvamVjdDESMBAGA1UEAxMJbG9jYWxob3N0MB4X
DTE0MDUxMzExMjc0MFoXDTE1MDUxMzExMjc0MFowYTELMAkGA1UEBhMCQVUxGTAX
BgNVBAgTEFdlc3Rlcm5BdXN0cmFsaWExETAPBgNVBAoTCENJVFMzMDAyMRAwDgYD
VQQLEwdQcm9qZWN0MRIwEAYDVQQDEwlsb2NhbGhvc3QwgZ8wDQYJKoZIhvcNAQEB
BQADgY0AMIGJAoGBALiCr5Nc9iWVvzkLTRkswIcpkP/dcwPWkjNABQavbO+CC69P
doRXsyIIpoP+AGPKIru8knHb8AYf8AW6uXb2oQqYQbmHh8Lsy4zrfGyccHA6+/mK
0072bWqZGo1fbmN71T9QqbkoO+xhsf05Fsu3xoerXBmdLM+ed2/DP0eKeaYVAgMB
AAEwDQYJKoZIhvcNAQEEBQADgYEApbgJPpwThgsNPhhysStqDcvt3QAsieg3Hp2c
CkAmF19ALyuW7Nk0M41TeI1tH0y+Zs0U8PBkYZBOGsOHpSPdM5auImeFmWVLEop0
OjBqymTKKzs1Lb1bRYwyo7WaTzfKo/MUKxy2sX60OnM7WbFQ/5IcPS3pvaEb8SjP
YAgfr0o=
-----END CERTIFICATE-----
