Certificate:
    Data:
        Version: 1 (0x0)
        Serial Number: 8 (0x8)
        Signature Algorithm: md5WithRSAEncryption
        Issuer: C=AU, ST=WesternAustralia, L=Perth, O=CITS3002, OU=Project, CN=localhost
        Validity
            Not Before: May 13 11:27:40 2014 GMT
            Not After : May 13 11:27:40 2015 GMT
        Subject: C=AU, ST=WesternAustralia, O=CITS3002, OU=Project, CN=localhost
        Subject Public Key Info:
            Public Key Algorithm: rsaEncryption
            RSA Public Key: (1024 bit)
                Modulus (1024 bit):
                    00:bb:32:ea:ee:0a:09:9d:94:a3:d7:02:6e:b2:b8:
                    28:1a:48:9e:b7:dc:6a:2b:8f:b5:ba:10:3d:53:87:
                    10:d9:4a:bf:0d:e2:27:cb:32:97:d8:1e:a9:75:b7:
                    10:c8:b3:e0:e2:0c:c0:fb:2e:42:96:10:79:7a:3b:
                    61:2c:3c:d8:7a:94:ef:a8:2b:aa:2e:27:6e:5f:df:
                    55:f6:1a:3e:47:f4:eb:0e:75:5f:cd:fa:8d:f2:6f:
                    ed:12:8a:3f:cd:80:47:b6:30:1c:c0:89:7c:2d:28:
                    8d:44:a0:be:f1:fa:8f:73:77:b1:f5:27:26:53:95:
                    eb:6c:57:2f:26:ae:37:4b:c9
                Exponent: 65537 (0x10001)
    Signature Algorithm: md5WithRSAEncryption
        5a:fe:f7:d4:79:10:a3:ea:9e:86:2c:84:1d:c4:55:3b:70:95:
        6c:d8:8c:84:f2:2f:9e:d1:40:81:bb:67:1e:e9:23:ee:8c:18:
        f2:cb:23:52:32:64:a4:d5:7f:cc:52:eb:74:2d:79:8f:1f:c8:
        05:83:2d:ec:6d:21:92:6a:f7:82:75:2e:cb:01:3b:3d:12:4b:
        b3:ce:5f:cc:ac:97:45:1c:86:27:90:09:f9:33:dc:f3:8a:9b:
        07:15:0d:01:6f:68:7f:a8:41:02:29:65:a5:c0:f8:17:09:50:
        f1:90:87:b5:e9:77:e2:cd:e9:f4:4d:72:fb:85:30:b3:9d:a8:
        37:4d
-----BEGIN CERTIFICATE-----
MIICQTCCAaoCAQgwDQYJKoZIhvcNAQEEBQAwcTELMAkGA1UEBhMCQVUxGTAXBgNV
BAgTEFdlc3Rlcm5BdXN0cmFsaWExDjAMBgNVBAcTBVBlcnRoMREwDwYDVQQKEwhD
SVRTMzAwMjEQMA4GA1UECxMHUHJvamVjdDESMBAGA1UEAxMJbG9jYWxob3N0MB4X
DTE0MDUxMzExMjc0MFoXDTE1MDUxMzExMjc0MFowYTELMAkGA1UEBhMCQVUxGTAX
BgNVBAgTEFdlc3Rlcm5BdXN0cmFsaWExETAPBgNVBAoTCENJVFMzMDAyMRAwDgYD
VQQLEwdQcm9qZWN0MRIwEAYDVQQDEwlsb2NhbGhvc3QwgZ8wDQYJKoZIhvcNAQEB
BQADgY0AMIGJAoGBALsy6u4KCZ2Uo9cCbrK4KBpInrfcaiuPtboQPVOHENlKvw3i
J8syl9geqXW3EMiz4OIMwPsuQpYQeXo7YSw82HqU76grqi4nbl/fVfYaPkf06w51
X836jfJv7RKKP82AR7YwHMCJfC0ojUSgvvH6j3N3sfUnJlOV62xXLyauN0vJAgMB
AAEwDQYJKoZIhvcNAQEEBQADgYEAWv731HkQo+qehiyEHcRVO3CVbNiMhPIvntFA
gbtnHukj7owY8ssjUjJkpNV/zFLrdC15jx/IBYMt7G0hkmr3gnUuywE7PRJLs85f
zKyXRRyGJ5AJ+TPc84qbBxUNAW9of6hBAillpcD4FwlQ8ZCHtel34s3p9E1y+4Uw
s52oN00=
-----END CERTIFICATE-----
