Certificate:
    Data:
        Version: 1 (0x0)
        Serial Number: 10 (0xa)
        Signature Algorithm: md5WithRSAEncryption
        Issuer: C=AU, ST=WesternAustralia, L=Perth, O=CITS3002, OU=Project, CN=localhost
        Validity
            Not Before: May 13 11:27:40 2014 GMT
            Not After : May 13 11:27:40 2015 GMT
        Subject: C=AU, ST=WesternAustralia, O=CITS3002, OU=Project, CN=localhost
        Subject Public Key Info:
            Public Key Algorithm: rsaEncryption
            RSA Public Key: (1024 bit)
                Modulus (1024 bit):
                    00:b1:71:51:69:bb:07:7c:89:bd:91:06:37:0d:8d:
                    4f:11:2e:71:a7:6a:29:ba:89:39:77:81:3f:29:af:
                    51:7d:96:ab:4e:9f:4d:9e:3f:aa:c9:1c:c2:55:56:
                    b2:17:eb:ac:8c:b8:c1:a9:40:4f:ba:0d:d3:48:42:
                    37:a6:11:2b:2c:63:c3:d7:ad:d2:eb:52:67:f7:e6:
                    d1:7b:45:fe:e1:8c:b3:a0:4b:f7:86:84:64:32:d5:
                    2a:ad:8d:c7:b7:b7:ef:f5:b6:c6:fc:54:ed:f0:64:
                    f7:7c:48:1b:3f:51:09:0e:94:f5:38:f3:28:66:c9:
                    d1:50:f9:ad:18:07:29:7b:b5
                Exponent: 65537 (0x10001)
    Signature Algorithm: md5WithRSAEncryption
        43:04:ac:8d:10:36:82:2e:ac:53:0c:96:b3:4c:0c:d8:c3:1d:
        6e:bb:7d:2b:24:83:79:ae:fa:c1:11:38:52:fc:ef:a2:34:de:
        7d:43:91:9a:31:f2:0f:a4:3c:fc:37:27:60:02:c0:ef:03:02:
        1e:1a:f4:8b:d9:d2:bf:4c:40:a8:1b:39:b8:e9:4a:5b:49:02:
        0d:58:02:18:4c:eb:f6:ff:84:d0:d5:e3:dd:46:10:3f:4f:f7:
        17:37:f0:28:9a:17:57:5d:63:da:27:8f:a0:00:e2:a4:67:a7:
        90:a5:eb:2d:47:cb:55:e2:32:e5:cd:29:d5:19:86:7b:c0:8a:
        4c:23
-----BEGIN CERTIFICATE-----
MIICQTCCAaoCAQowDQYJKoZIhvcNAQEEBQAwcTELMAkGA1UEBhMCQVUxGTAXBgNV
BAgTEFdlc3Rlcm5BdXN0cmFsaWExDjAMBgNVBAcTBVBlcnRoMREwDwYDVQQKEwhD
SVRTMzAwMjEQMA4GA1UECxMHUHJvamVjdDESMBAGA1UEAxMJbG9jYWxob3N0MB4X
DTE0MDUxMzExMjc0MFoXDTE1MDUxMzExMjc0MFowYTELMAkGA1UEBhMCQVUxGTAX
BgNVBAgTEFdlc3Rlcm5BdXN0cmFsaWExETAPBgNVBAoTCENJVFMzMDAyMRAwDgYD
VQQLEwdQcm9qZWN0MRIwEAYDVQQDEwlsb2NhbGhvc3QwgZ8wDQYJKoZIhvcNAQEB
BQADgY0AMIGJAoGBALFxUWm7B3yJvZEGNw2NTxEucadqKbqJOXeBPymvUX2Wq06f
TZ4/qskcwlVWshfrrIy4walAT7oN00hCN6YRKyxjw9et0utSZ/fm0XtF/uGMs6BL
94aEZDLVKq2Nx7e37/W2xvxU7fBk93xIGz9RCQ6U9TjzKGbJ0VD5rRgHKXu1AgMB
AAEwDQYJKoZIhvcNAQEEBQADgYEAQwSsjRA2gi6sUwyWs0wM2MMdbrt9KySDea76
wRE4UvzvojTefUORmjHyD6Q8/DcnYALA7wMCHhr0i9nSv0xAqBs5uOlKW0kCDVgC
GEzr9v+E0NXj3UYQP0/3FzfwKJoXV11j2iePoADipGenkKXrLUfLVeIy5c0p1RmG
e8CKTCM=
-----END CERTIFICATE-----
