Certificate:
    Data:
        Version: 1 (0x0)
        Serial Number: 9 (0x9)
        Signature Algorithm: md5WithRSAEncryption
        Issuer: C=AU, ST=WesternAustralia, L=Perth, O=CITS3002, OU=Project, CN=localhost
        Validity
            Not Before: May 13 11:27:40 2014 GMT
            Not After : May 13 11:27:40 2015 GMT
        Subject: C=AU, ST=WesternAustralia, O=CITS3002, OU=Project, CN=localhost
        Subject Public Key Info:
            Public Key Algorithm: rsaEncryption
            RSA Public Key: (1024 bit)
                Modulus (1024 bit):
                    00:ed:a1:23:ad:0b:a9:b3:09:f9:35:42:52:c5:ae:
                    1d:f1:9e:54:c6:a5:b5:4a:4d:1b:24:7b:02:d7:e7:
                    73:0d:8c:d5:bf:75:5d:04:6f:49:69:20:bc:5b:bb:
                    54:49:4e:45:f6:f4:ab:ba:bd:4a:83:82:34:0c:48:
                    2a:2f:d9:02:a7:0f:b4:b9:0d:3d:8a:eb:75:b8:ac:
                    28:ef:ef:d5:27:bb:a0:4c:e2:bf:10:82:ac:5c:6a:
                    b6:d8:66:03:89:15:bb:ac:f8:72:83:11:19:b3:2a:
                    f8:9c:e6:95:67:4f:ec:f0:1c:19:12:26:4f:ed:ee:
                    c2:f6:98:6d:9e:13:f4:26:8f
                Exponent: 65537 (0x10001)
    Signature Algorithm: md5WithRSAEncryption
        6c:cf:0b:93:8e:ff:ab:af:f8:a4:85:68:1f:44:5d:9b:b5:00:
        6b:15:d6:bc:63:a1:e8:50:f1:56:74:22:39:45:00:b5:8c:a2:
        88:1a:ef:67:78:5c:c1:6a:70:03:b0:f8:b3:e2:3a:f1:42:12:
        a3:e6:76:1f:de:b9:c4:1c:28:48:cf:00:ea:99:75:5f:14:4a:
        4a:5b:5e:45:63:a3:e3:86:7b:26:f1:85:15:9f:5e:cc:2a:9b:
        0f:31:dd:72:df:4b:23:b6:f1:bb:6e:25:e3:8f:05:ff:e7:9b:
        3f:7c:7c:37:95:90:f5:ec:6e:f2:e4:0c:65:93:4e:2c:8f:1f:
        e6:42
-----BEGIN CERTIFICATE-----
MIICQTCCAaoCAQkwDQYJKoZIhvcNAQEEBQAwcTELMAkGA1UEBhMCQVUxGTAXBgNV
BAgTEFdlc3Rlcm5BdXN0cmFsaWExDjAMBgNVBAcTBVBlcnRoMREwDwYDVQQKEwhD
SVRTMzAwMjEQMA4GA1UECxMHUHJvamVjdDESMBAGA1UEAxMJbG9jYWxob3N0MB4X
DTE0MDUxMzExMjc0MFoXDTE1MDUxMzExMjc0MFowYTELMAkGA1UEBhMCQVUxGTAX
BgNVBAgTEFdlc3Rlcm5BdXN0cmFsaWExETAPBgNVBAoTCENJVFMzMDAyMRAwDgYD
VQQLEwdQcm9qZWN0MRIwEAYDVQQDEwlsb2NhbGhvc3QwgZ8wDQYJKoZIhvcNAQEB
BQADgY0AMIGJAoGBAO2hI60LqbMJ+TVCUsWuHfGeVMaltUpNGyR7Atfncw2M1b91
XQRvSWkgvFu7VElORfb0q7q9SoOCNAxIKi/ZAqcPtLkNPYrrdbisKO/v1Se7oEzi
vxCCrFxqtthmA4kVu6z4coMRGbMq+JzmlWdP7PAcGRImT+3uwvaYbZ4T9CaPAgMB
AAEwDQYJKoZIhvcNAQEEBQADgYEAbM8Lk47/q6/4pIVoH0Rdm7UAaxXWvGOh6FDx
VnQiOUUAtYyiiBrvZ3hcwWpwA7D4s+I68UISo+Z2H965xBwoSM8A6pl1XxRKSlte
RWOj44Z7JvGFFZ9ezCqbDzHdct9LI7bxu24l448F/+ebP3x8N5WQ9exu8uQMZZNO
LI8f5kI=
-----END CERTIFICATE-----
