Certificate:
    Data:
        Version: 1 (0x0)
        Serial Number: 6 (0x6)
        Signature Algorithm: md5WithRSAEncryption
        Issuer: C=AU, ST=WesternAustralia, L=Perth, O=CITS3002, OU=Project, CN=localhost
        Validity
            Not Before: May 13 11:27:40 2014 GMT
            Not After : May 13 11:27:40 2015 GMT
        Subject: C=AU, ST=WesternAustralia, O=CITS3002, OU=Project, CN=localhost
        Subject Public Key Info:
            Public Key Algorithm: rsaEncryption
            RSA Public Key: (1024 bit)
                Modulus (1024 bit):
                    00:ac:e2:20:eb:1e:3b:3f:7b:7d:81:e5:d0:93:47:
                    7c:41:28:92:55:79:11:68:be:66:e6:a3:f4:3e:88:
                    41:25:93:69:65:d4:6a:5f:93:c1:49:10:b0:88:42:
                    5a:43:b8:f2:f5:ee:4d:a9:ec:ba:02:71:96:0a:0a:
                    5c:52:b5:f5:2d:e7:ee:dc:74:ca:2a:39:e4:f3:8c:
                    50:f0:b2:58:da:81:ae:36:24:25:50:fb:aa:ef:15:
                    ad:ca:e7:4b:17:82:6c:15:5a:a8:7a:06:1e:dc:8a:
                    a6:cd:59:5f:4d:e1:e9:7a:4e:10:a2:89:0d:1e:1b:
                    6d:c7:7c:c1:32:5d:6d:79:e9
                Exponent: 65537 (0x10001)
    Signature Algorithm: md5WithRSAEncryption
        95:a9:ee:94:e8:11:70:b2:e3:ff:d9:77:01:49:cb:67:35:a3:
        77:9a:3d:60:5d:75:e7:f5:50:8e:af:a4:37:93:51:5a:75:8a:
        b9:cf:cd:be:f7:9b:89:4f:18:d8:39:b5:d2:8b:67:68:2a:e2:
        a0:a1:15:3d:f6:5e:48:79:44:4b:88:1e:a6:03:54:24:11:9b:
        b6:e1:55:10:25:35:10:3c:76:3c:a8:48:6d:f4:25:48:81:19:
        96:6c:5c:da:2a:87:92:e4:cc:9e:bd:7b:7c:92:71:7d:f8:39:
        5e:68:ef:44:62:64:20:b4:e1:33:28:5f:98:ff:26:5f:c2:1a:
        d2:9a
-----BEGIN CERTIFICATE-----
MIICQTCCAaoCAQYwDQYJKoZIhvcNAQEEBQAwcTELMAkGA1UEBhMCQVUxGTAXBgNV
BAgTEFdlc3Rlcm5BdXN0cmFsaWExDjAMBgNVBAcTBVBlcnRoMREwDwYDVQQKEwhD
SVRTMzAwMjEQMA4GA1UECxMHUHJvamVjdDESMBAGA1UEAxMJbG9jYWxob3N0MB4X
DTE0MDUxMzExMjc0MFoXDTE1MDUxMzExMjc0MFowYTELMAkGA1UEBhMCQVUxGTAX
BgNVBAgTEFdlc3Rlcm5BdXN0cmFsaWExETAPBgNVBAoTCENJVFMzMDAyMRAwDgYD
VQQLEwdQcm9qZWN0MRIwEAYDVQQDEwlsb2NhbGhvc3QwgZ8wDQYJKoZIhvcNAQEB
BQADgY0AMIGJAoGBAKziIOseOz97fYHl0JNHfEEoklV5EWi+Zuaj9D6IQSWTaWXU
al+TwUkQsIhCWkO48vXuTansugJxlgoKXFK19S3n7tx0yio55POMUPCyWNqBrjYk
JVD7qu8VrcrnSxeCbBVaqHoGHtyKps1ZX03h6XpOEKKJDR4bbcd8wTJdbXnpAgMB
AAEwDQYJKoZIhvcNAQEEBQADgYEAlanulOgRcLLj/9l3AUnLZzWjd5o9YF115/VQ
jq+kN5NRWnWKuc/NvvebiU8Y2Dm10otnaCrioKEVPfZeSHlES4gepgNUJBGbtuFV
ECU1EDx2PKhIbfQlSIEZlmxc2iqHkuTMnr17fJJxffg5XmjvRGJkILThMyhfmP8m
X8Ia0po=
-----END CERTIFICATE-----
