Certificate:
    Data:
        Version: 1 (0x0)
        Serial Number: 14 (0xe)
        Signature Algorithm: md5WithRSAEncryption
        Issuer: C=AU, ST=WesternAustralia, L=Perth, O=CITS3002, OU=Project, CN=localhost
        Validity
            Not Before: May 13 11:27:40 2014 GMT
            Not After : May 13 11:27:40 2015 GMT
        Subject: C=AU, ST=WesternAustralia, O=CITS3002, OU=Project, CN=localhost
        Subject Public Key Info:
            Public Key Algorithm: rsaEncryption
            RSA Public Key: (1024 bit)
                Modulus (1024 bit):
                    00:a4:06:5d:ea:92:85:b8:7e:d1:a4:86:f5:fb:0e:
                    d0:00:7a:97:ed:bb:19:1a:74:75:6a:43:e5:05:9e:
                    ae:3f:f7:34:10:d2:41:9f:b7:da:de:23:34:10:f2:
                    2c:a3:3a:91:df:a3:68:28:6b:76:2c:2a:d3:6d:67:
                    f5:a3:f9:65:bd:52:d0:a2:4f:df:2a:ce:a2:bc:c1:
                    a2:62:ca:89:b8:3a:8c:14:93:ec:48:17:6d:05:c1:
                    41:47:62:5a:9f:32:cc:17:2b:01:a7:aa:7e:93:40:
                    4a:db:d6:54:c0:e6:72:ef:e8:31:e3:7d:3c:e5:0f:
                    7e:ea:93:36:99:35:c8:0c:3b
                Exponent: 65537 (0x10001)
    Signature Algorithm: md5WithRSAEncryption
        17:15:0f:e1:fd:89:ea:a4:d2:b7:2d:49:05:03:3a:34:d0:f9:
        0c:90:2d:5c:9a:44:44:c2:b0:46:78:67:14:de:71:4f:04:cf:
        6e:df:a7:b0:39:e9:cb:f5:30:6e:3e:b9:f1:8b:38:70:d0:ac:
        b6:15:62:26:e6:6a:f4:70:f1:9c:80:06:8e:0d:48:a2:bf:67:
        2b:b7:34:2b:da:05:23:fc:69:ab:2b:65:9a:28:0c:b6:e4:90:
        d7:83:fc:fe:63:c7:e3:38:c1:f5:7d:16:9d:a3:2b:bd:74:1d:
        5c:38:0a:53:f1:27:ce:dd:01:f7:3c:5e:3c:e9:46:ab:ee:55:
        83:60
-----BEGIN CERTIFICATE-----
MIICQTCCAaoCAQ4wDQYJKoZIhvcNAQEEBQAwcTELMAkGA1UEBhMCQVUxGTAXBgNV
BAgTEFdlc3Rlcm5BdXN0cmFsaWExDjAMBgNVBAcTBVBlcnRoMREwDwYDVQQKEwhD
SVRTMzAwMjEQMA4GA1UECxMHUHJvamVjdDESMBAGA1UEAxMJbG9jYWxob3N0MB4X
DTE0MDUxMzExMjc0MFoXDTE1MDUxMzExMjc0MFowYTELMAkGA1UEBhMCQVUxGTAX
BgNVBAgTEFdlc3Rlcm5BdXN0cmFsaWExETAPBgNVBAoTCENJVFMzMDAyMRAwDgYD
VQQLEwdQcm9qZWN0MRIwEAYDVQQDEwlsb2NhbGhvc3QwgZ8wDQYJKoZIhvcNAQEB
BQADgY0AMIGJAoGBAKQGXeqShbh+0aSG9fsO0AB6l+27GRp0dWpD5QWerj/3NBDS
QZ+32t4jNBDyLKM6kd+jaChrdiwq021n9aP5Zb1S0KJP3yrOorzBomLKibg6jBST
7EgXbQXBQUdiWp8yzBcrAaeqfpNAStvWVMDmcu/oMeN9POUPfuqTNpk1yAw7AgMB
AAEwDQYJKoZIhvcNAQEEBQADgYEAFxUP4f2J6qTSty1JBQM6NND5DJAtXJpERMKw
RnhnFN5xTwTPbt+nsDnpy/Uwbj658Ys4cNCsthViJuZq9HDxnIAGjg1Ior9nK7c0
K9oFI/xpqytlmigMtuSQ14P8/mPH4zjB9X0WnaMrvXQdXDgKU/Enzt0B9zxePOlG
q+5Vg2A=
-----END CERTIFICATE-----
